ARM GAS  /tmp/ccKv40C2.s 			page 1


   1              		.cpu cortex-m7
   2              		.arch armv7e-m
   3              		.fpu fpv5-sp-d16
   4              		.eabi_attribute 27, 1
   5              		.eabi_attribute 28, 1
   6              		.eabi_attribute 20, 1
   7              		.eabi_attribute 21, 1
   8              		.eabi_attribute 23, 3
   9              		.eabi_attribute 24, 1
  10              		.eabi_attribute 25, 1
  11              		.eabi_attribute 26, 1
  12              		.eabi_attribute 30, 1
  13              		.eabi_attribute 34, 1
  14              		.eabi_attribute 18, 4
  15              		.file	"main.c"
  16              		.text
  17              	.Ltext0:
  18              		.cfi_sections	.debug_frame
  19              		.file 1 "Core/Src/main.c"
  20              		.section	.rodata.char_converter.str1.4,"aMS",%progbits,1
  21              		.align	2
  22              	.LC0:
  23 0000 2E2D00   		.ascii	".-\000"
  24 0003 00       		.align	2
  25              	.LC1:
  26 0004 2D2E2E2E 		.ascii	"-...\000"
  26      00
  27 0009 000000   		.align	2
  28              	.LC2:
  29 000c 2D2E2D2E 		.ascii	"-.-.\000"
  29      00
  30 0011 000000   		.align	2
  31              	.LC3:
  32 0014 2D2E2E00 		.ascii	"-..\000"
  33              		.align	2
  34              	.LC4:
  35 0018 2E00     		.ascii	".\000"
  36 001a 0000     		.align	2
  37              	.LC5:
  38 001c 2E2E2D2E 		.ascii	"..-.\000"
  38      00
  39 0021 000000   		.align	2
  40              	.LC6:
  41 0024 2D2D2E00 		.ascii	"--.\000"
  42              		.align	2
  43              	.LC7:
  44 0028 2E2E2E2E 		.ascii	"....\000"
  44      00
  45 002d 000000   		.align	2
  46              	.LC8:
  47 0030 2E2E00   		.ascii	"..\000"
  48 0033 00       		.align	2
  49              	.LC9:
  50 0034 2E2D2D2D 		.ascii	".---\000"
  50      00
  51 0039 000000   		.align	2
  52              	.LC10:
ARM GAS  /tmp/ccKv40C2.s 			page 2


  53 003c 2D2E2D00 		.ascii	"-.-\000"
  54              		.align	2
  55              	.LC11:
  56 0040 2E2D2E2E 		.ascii	".-..\000"
  56      00
  57 0045 000000   		.align	2
  58              	.LC12:
  59 0048 2D2D00   		.ascii	"--\000"
  60 004b 00       		.align	2
  61              	.LC13:
  62 004c 2D2E00   		.ascii	"-.\000"
  63 004f 00       		.align	2
  64              	.LC14:
  65 0050 2D2D2D00 		.ascii	"---\000"
  66              		.align	2
  67              	.LC15:
  68 0054 2E2D2D2E 		.ascii	".--.\000"
  68      00
  69 0059 000000   		.align	2
  70              	.LC16:
  71 005c 2D2D2E2D 		.ascii	"--.-\000"
  71      00
  72 0061 000000   		.align	2
  73              	.LC17:
  74 0064 2E2D2E00 		.ascii	".-.\000"
  75              		.align	2
  76              	.LC18:
  77 0068 2E2E2E00 		.ascii	"...\000"
  78              		.align	2
  79              	.LC19:
  80 006c 2D00     		.ascii	"-\000"
  81 006e 0000     		.align	2
  82              	.LC20:
  83 0070 2E2E2D00 		.ascii	"..-\000"
  84              		.align	2
  85              	.LC21:
  86 0074 2E2E2E2D 		.ascii	"...-\000"
  86      00
  87 0079 000000   		.align	2
  88              	.LC22:
  89 007c 2E2D2D00 		.ascii	".--\000"
  90              		.align	2
  91              	.LC23:
  92 0080 2D2E2E2D 		.ascii	"-..-\000"
  92      00
  93 0085 000000   		.align	2
  94              	.LC24:
  95 0088 2D2E2D2D 		.ascii	"-.--\000"
  95      00
  96 008d 000000   		.align	2
  97              	.LC25:
  98 0090 2D2D2E2E 		.ascii	"--..\000"
  98      00
  99 0095 000000   		.align	2
 100              	.LC26:
 101 0098 00       		.ascii	"\000"
 102              		.section	.text.char_converter,"ax",%progbits
ARM GAS  /tmp/ccKv40C2.s 			page 3


 103              		.align	1
 104              		.syntax unified
 105              		.thumb
 106              		.thumb_func
 108              	char_converter:
 109              	.LVL0:
 110              	.LFB148:
   1:Core/Src/main.c **** /* USER CODE BEGIN Header */
   2:Core/Src/main.c **** /**
   3:Core/Src/main.c ****   ******************************************************************************
   4:Core/Src/main.c ****   * @file           : main.c
   5:Core/Src/main.c ****   * @brief          : Main program body
   6:Core/Src/main.c ****   ******************************************************************************
   7:Core/Src/main.c ****   * @attention
   8:Core/Src/main.c ****   *
   9:Core/Src/main.c ****   * Copyright (c) 2026 STMicroelectronics.
  10:Core/Src/main.c ****   * All rights reserved.
  11:Core/Src/main.c ****   *
  12:Core/Src/main.c ****   * This software is licensed under terms that can be found in the LICENSE file
  13:Core/Src/main.c ****   * in the root directory of this software component.
  14:Core/Src/main.c ****   * If no LICENSE file comes with this software, it is provided AS-IS.
  15:Core/Src/main.c ****   *
  16:Core/Src/main.c ****   ******************************************************************************
  17:Core/Src/main.c ****   */
  18:Core/Src/main.c **** /* USER CODE END Header */
  19:Core/Src/main.c **** /* Includes ------------------------------------------------------------------*/
  20:Core/Src/main.c **** #include "main.h"
  21:Core/Src/main.c **** 
  22:Core/Src/main.c **** /* Private includes ----------------------------------------------------------*/
  23:Core/Src/main.c **** /* USER CODE BEGIN Includes */
  24:Core/Src/main.c **** 
  25:Core/Src/main.c **** #include <stdio.h>
  26:Core/Src/main.c **** #include <string.h>
  27:Core/Src/main.c **** #include <ctype.h>
  28:Core/Src/main.c **** 
  29:Core/Src/main.c **** #define MAX_OUTPUT_LEN 512
  30:Core/Src/main.c **** #define MORSE_UNIT 500
  31:Core/Src/main.c **** 
  32:Core/Src/main.c **** static const char message[] = "HEL";
  33:Core/Src/main.c **** char output[MAX_OUTPUT_LEN] = {0};
  34:Core/Src/main.c **** 
  35:Core/Src/main.c **** /* USER CODE END Includes */
  36:Core/Src/main.c **** 
  37:Core/Src/main.c **** /* Private typedef -----------------------------------------------------------*/
  38:Core/Src/main.c **** /* USER CODE BEGIN PTD */
  39:Core/Src/main.c **** 
  40:Core/Src/main.c **** /* USER CODE END PTD */
  41:Core/Src/main.c **** 
  42:Core/Src/main.c **** /* Private define ------------------------------------------------------------*/
  43:Core/Src/main.c **** /* USER CODE BEGIN PD */
  44:Core/Src/main.c **** 
  45:Core/Src/main.c **** /* USER CODE END PD */
  46:Core/Src/main.c **** 
  47:Core/Src/main.c **** /* Private macro -------------------------------------------------------------*/
  48:Core/Src/main.c **** /* USER CODE BEGIN PM */
  49:Core/Src/main.c **** 
  50:Core/Src/main.c **** /* USER CODE END PM */
ARM GAS  /tmp/ccKv40C2.s 			page 4


  51:Core/Src/main.c **** 
  52:Core/Src/main.c **** /* Private variables ---------------------------------------------------------*/
  53:Core/Src/main.c **** 
  54:Core/Src/main.c **** /* USER CODE BEGIN PV */
  55:Core/Src/main.c **** 
  56:Core/Src/main.c **** /* USER CODE END PV */
  57:Core/Src/main.c **** 
  58:Core/Src/main.c **** /* Private function prototypes -----------------------------------------------*/
  59:Core/Src/main.c **** void SystemClock_Config(void);
  60:Core/Src/main.c **** static void MPU_Config(void);
  61:Core/Src/main.c **** static void MX_GPIO_Init(void);
  62:Core/Src/main.c **** 
  63:Core/Src/main.c **** 
  64:Core/Src/main.c **** //Decoder Functions
  65:Core/Src/main.c **** static const char * char_converter(char c);
  66:Core/Src/main.c **** static void morse_decoder(const char * message, char * output);
  67:Core/Src/main.c **** 
  68:Core/Src/main.c **** //Blink Functions
  69:Core/Src/main.c **** static void morse_dot(void);
  70:Core/Src/main.c **** static void morse_slash(void);
  71:Core/Src/main.c **** static void morse_mod(void);
  72:Core/Src/main.c **** /* USER CODE BEGIN PFP */
  73:Core/Src/main.c **** 
  74:Core/Src/main.c **** /* USER CODE END PFP */
  75:Core/Src/main.c **** 
  76:Core/Src/main.c **** /* Private user code ---------------------------------------------------------*/
  77:Core/Src/main.c **** /* USER CODE BEGIN 0 */
  78:Core/Src/main.c **** 
  79:Core/Src/main.c **** /* USER CODE END 0 */
  80:Core/Src/main.c **** 
  81:Core/Src/main.c **** /**
  82:Core/Src/main.c ****   * @brief  The application entry point.
  83:Core/Src/main.c ****   * @retval int
  84:Core/Src/main.c ****   */
  85:Core/Src/main.c **** int main(void)
  86:Core/Src/main.c **** {
  87:Core/Src/main.c **** 
  88:Core/Src/main.c ****   /* USER CODE BEGIN 1 */
  89:Core/Src/main.c **** 
  90:Core/Src/main.c ****   morse_decoder(message, output);
  91:Core/Src/main.c **** 
  92:Core/Src/main.c ****   /* USER CODE END 1 */
  93:Core/Src/main.c **** 
  94:Core/Src/main.c ****   /* MPU Configuration--------------------------------------------------------*/
  95:Core/Src/main.c ****   MPU_Config();
  96:Core/Src/main.c **** 
  97:Core/Src/main.c ****   /* MCU Configuration--------------------------------------------------------*/
  98:Core/Src/main.c **** 
  99:Core/Src/main.c ****   /* Reset of all peripherals, Initializes the Flash interface and the Systick. */
 100:Core/Src/main.c ****   HAL_Init();
 101:Core/Src/main.c **** 
 102:Core/Src/main.c ****   /* USER CODE BEGIN Init */
 103:Core/Src/main.c **** 
 104:Core/Src/main.c ****   /* USER CODE END Init */
 105:Core/Src/main.c **** 
 106:Core/Src/main.c ****   /* Configure the system clock */
 107:Core/Src/main.c ****   SystemClock_Config();
ARM GAS  /tmp/ccKv40C2.s 			page 5


 108:Core/Src/main.c **** 
 109:Core/Src/main.c ****   /* USER CODE BEGIN SysInit */
 110:Core/Src/main.c **** 
 111:Core/Src/main.c ****   /* USER CODE END SysInit */
 112:Core/Src/main.c **** 
 113:Core/Src/main.c ****   /* Initialize all configured peripherals */
 114:Core/Src/main.c ****   MX_GPIO_Init();
 115:Core/Src/main.c ****   /* USER CODE BEGIN 2 */
 116:Core/Src/main.c **** 
 117:Core/Src/main.c ****   /* USER CODE END 2 */
 118:Core/Src/main.c **** 
 119:Core/Src/main.c ****   /* Infinite loop */
 120:Core/Src/main.c ****   /* USER CODE BEGIN WHILE */
 121:Core/Src/main.c ****   while (1)
 122:Core/Src/main.c ****   {
 123:Core/Src/main.c ****     /* USER CODE END WHILE */
 124:Core/Src/main.c **** 
 125:Core/Src/main.c ****     for(int i = 0; output[i] != '\0'; i++) {
 126:Core/Src/main.c **** 
 127:Core/Src/main.c ****       switch(output[i]) {
 128:Core/Src/main.c **** 
 129:Core/Src/main.c ****         case '.' : 
 130:Core/Src/main.c ****           morse_dot();
 131:Core/Src/main.c ****           HAL_Delay(MORSE_UNIT);
 132:Core/Src/main.c ****           break;
 133:Core/Src/main.c ****         case '-' :
 134:Core/Src/main.c ****           morse_slash();
 135:Core/Src/main.c ****           HAL_Delay(MORSE_UNIT);
 136:Core/Src/main.c ****           break;
 137:Core/Src/main.c ****         case '|' :
 138:Core/Src/main.c ****           morse_mod();
 139:Core/Src/main.c ****           HAL_Delay(MORSE_UNIT);
 140:Core/Src/main.c ****           break;
 141:Core/Src/main.c **** 
 142:Core/Src/main.c ****         default : break;
 143:Core/Src/main.c **** 
 144:Core/Src/main.c ****       }
 145:Core/Src/main.c **** 
 146:Core/Src/main.c ****     }
 147:Core/Src/main.c **** 
 148:Core/Src/main.c ****     /* USER CODE BEGIN 3 */
 149:Core/Src/main.c ****   }
 150:Core/Src/main.c ****   /* USER CODE END 3 */
 151:Core/Src/main.c **** }
 152:Core/Src/main.c **** 
 153:Core/Src/main.c **** /**
 154:Core/Src/main.c ****   * @brief System Clock Configuration
 155:Core/Src/main.c ****   * @retval None
 156:Core/Src/main.c ****   */
 157:Core/Src/main.c **** void SystemClock_Config(void)
 158:Core/Src/main.c **** {
 159:Core/Src/main.c ****   RCC_OscInitTypeDef RCC_OscInitStruct = {0};
 160:Core/Src/main.c ****   RCC_ClkInitTypeDef RCC_ClkInitStruct = {0};
 161:Core/Src/main.c **** 
 162:Core/Src/main.c ****   /** Configure the main internal regulator output voltage
 163:Core/Src/main.c ****   */
 164:Core/Src/main.c ****   __HAL_RCC_PWR_CLK_ENABLE();
ARM GAS  /tmp/ccKv40C2.s 			page 6


 165:Core/Src/main.c ****   __HAL_PWR_VOLTAGESCALING_CONFIG(PWR_REGULATOR_VOLTAGE_SCALE1);
 166:Core/Src/main.c **** 
 167:Core/Src/main.c ****   /** Initializes the RCC Oscillators according to the specified parameters
 168:Core/Src/main.c ****   * in the RCC_OscInitTypeDef structure.
 169:Core/Src/main.c ****   */
 170:Core/Src/main.c ****   RCC_OscInitStruct.OscillatorType = RCC_OSCILLATORTYPE_HSE;
 171:Core/Src/main.c ****   RCC_OscInitStruct.HSEState = RCC_HSE_BYPASS;
 172:Core/Src/main.c ****   RCC_OscInitStruct.PLL.PLLState = RCC_PLL_ON;
 173:Core/Src/main.c ****   RCC_OscInitStruct.PLL.PLLSource = RCC_PLLSOURCE_HSE;
 174:Core/Src/main.c ****   RCC_OscInitStruct.PLL.PLLM = 4;
 175:Core/Src/main.c ****   RCC_OscInitStruct.PLL.PLLN = 216;
 176:Core/Src/main.c ****   RCC_OscInitStruct.PLL.PLLP = RCC_PLLP_DIV2;
 177:Core/Src/main.c ****   RCC_OscInitStruct.PLL.PLLQ = 9;
 178:Core/Src/main.c ****   if (HAL_RCC_OscConfig(&RCC_OscInitStruct) != HAL_OK)
 179:Core/Src/main.c ****   {
 180:Core/Src/main.c ****     Error_Handler();
 181:Core/Src/main.c ****   }
 182:Core/Src/main.c **** 
 183:Core/Src/main.c ****   /** Activate the Over-Drive mode
 184:Core/Src/main.c ****   */
 185:Core/Src/main.c ****   if (HAL_PWREx_EnableOverDrive() != HAL_OK)
 186:Core/Src/main.c ****   {
 187:Core/Src/main.c ****     Error_Handler();
 188:Core/Src/main.c ****   }
 189:Core/Src/main.c **** 
 190:Core/Src/main.c ****   /** Initializes the CPU, AHB and APB buses clocks
 191:Core/Src/main.c ****   */
 192:Core/Src/main.c ****   RCC_ClkInitStruct.ClockType = RCC_CLOCKTYPE_HCLK|RCC_CLOCKTYPE_SYSCLK
 193:Core/Src/main.c ****                               |RCC_CLOCKTYPE_PCLK1|RCC_CLOCKTYPE_PCLK2;
 194:Core/Src/main.c ****   RCC_ClkInitStruct.SYSCLKSource = RCC_SYSCLKSOURCE_PLLCLK;
 195:Core/Src/main.c ****   RCC_ClkInitStruct.AHBCLKDivider = RCC_SYSCLK_DIV1;
 196:Core/Src/main.c ****   RCC_ClkInitStruct.APB1CLKDivider = RCC_HCLK_DIV4;
 197:Core/Src/main.c ****   RCC_ClkInitStruct.APB2CLKDivider = RCC_HCLK_DIV2;
 198:Core/Src/main.c **** 
 199:Core/Src/main.c ****   if (HAL_RCC_ClockConfig(&RCC_ClkInitStruct, FLASH_LATENCY_7) != HAL_OK)
 200:Core/Src/main.c ****   {
 201:Core/Src/main.c ****     Error_Handler();
 202:Core/Src/main.c ****   }
 203:Core/Src/main.c **** }
 204:Core/Src/main.c **** 
 205:Core/Src/main.c **** /**
 206:Core/Src/main.c ****   * @brief GPIO Initialization Function
 207:Core/Src/main.c ****   * @param None
 208:Core/Src/main.c ****   * @retval None
 209:Core/Src/main.c ****   */
 210:Core/Src/main.c **** static void MX_GPIO_Init(void)
 211:Core/Src/main.c **** {
 212:Core/Src/main.c ****   GPIO_InitTypeDef GPIO_InitStruct = {0};
 213:Core/Src/main.c ****   /* USER CODE BEGIN MX_GPIO_Init_1 */
 214:Core/Src/main.c **** 
 215:Core/Src/main.c ****   /* USER CODE END MX_GPIO_Init_1 */
 216:Core/Src/main.c **** 
 217:Core/Src/main.c ****   /* GPIO Ports Clock Enable */
 218:Core/Src/main.c ****   __HAL_RCC_GPIOC_CLK_ENABLE();
 219:Core/Src/main.c ****   __HAL_RCC_GPIOH_CLK_ENABLE();
 220:Core/Src/main.c ****   __HAL_RCC_GPIOB_CLK_ENABLE();
 221:Core/Src/main.c **** 
ARM GAS  /tmp/ccKv40C2.s 			page 7


 222:Core/Src/main.c ****   /*Configure GPIO pin Output Level */
 223:Core/Src/main.c ****   HAL_GPIO_WritePin(OUTPUT_LED_GPIO_Port, OUTPUT_LED_Pin, GPIO_PIN_RESET);
 224:Core/Src/main.c **** 
 225:Core/Src/main.c ****   /*Configure GPIO pin : INPUT_Pin */
 226:Core/Src/main.c ****   GPIO_InitStruct.Pin = INPUT_Pin;
 227:Core/Src/main.c ****   GPIO_InitStruct.Mode = GPIO_MODE_INPUT;
 228:Core/Src/main.c ****   GPIO_InitStruct.Pull = GPIO_PULLDOWN;
 229:Core/Src/main.c ****   HAL_GPIO_Init(INPUT_GPIO_Port, &GPIO_InitStruct);
 230:Core/Src/main.c **** 
 231:Core/Src/main.c ****   /*Configure GPIO pin : OUTPUT_LED_Pin */
 232:Core/Src/main.c ****   GPIO_InitStruct.Pin = OUTPUT_LED_Pin;
 233:Core/Src/main.c ****   GPIO_InitStruct.Mode = GPIO_MODE_OUTPUT_PP;
 234:Core/Src/main.c ****   GPIO_InitStruct.Pull = GPIO_NOPULL;
 235:Core/Src/main.c ****   GPIO_InitStruct.Speed = GPIO_SPEED_FREQ_LOW;
 236:Core/Src/main.c ****   HAL_GPIO_Init(OUTPUT_LED_GPIO_Port, &GPIO_InitStruct);
 237:Core/Src/main.c **** 
 238:Core/Src/main.c ****   /* USER CODE BEGIN MX_GPIO_Init_2 */
 239:Core/Src/main.c **** 
 240:Core/Src/main.c ****   /* USER CODE END MX_GPIO_Init_2 */
 241:Core/Src/main.c **** }
 242:Core/Src/main.c **** 
 243:Core/Src/main.c **** /* USER CODE BEGIN 4 */
 244:Core/Src/main.c **** 
 245:Core/Src/main.c **** // Morse Constructor Functions
 246:Core/Src/main.c **** 
 247:Core/Src/main.c **** static const char * char_converter(char c) {
 111              		.loc 1 247 44 view -0
 112              		.cfi_startproc
 113              		@ args = 0, pretend = 0, frame = 0
 114              		@ frame_needed = 0, uses_anonymous_args = 0
 115              		@ link register save eliminated.
 248:Core/Src/main.c **** 
 249:Core/Src/main.c ****     switch(c) {
 116              		.loc 1 249 5 view .LVU1
 117 0000 4138     		subs	r0, r0, #65
 118              	.LVL1:
 119              		.loc 1 249 5 is_stmt 0 view .LVU2
 120 0002 1928     		cmp	r0, #25
 121 0004 40D8     		bhi	.L2
 122 0006 DFE800F0 		tbb	[pc, r0]
 123              	.L4:
 124 000a 0D       		.byte	(.L29-.L4)/2
 125 000b 41       		.byte	(.L30-.L4)/2
 126 000c 0F       		.byte	(.L27-.L4)/2
 127 000d 11       		.byte	(.L26-.L4)/2
 128 000e 13       		.byte	(.L25-.L4)/2
 129 000f 15       		.byte	(.L24-.L4)/2
 130 0010 17       		.byte	(.L23-.L4)/2
 131 0011 19       		.byte	(.L22-.L4)/2
 132 0012 1B       		.byte	(.L21-.L4)/2
 133 0013 1D       		.byte	(.L20-.L4)/2
 134 0014 1F       		.byte	(.L19-.L4)/2
 135 0015 21       		.byte	(.L18-.L4)/2
 136 0016 23       		.byte	(.L17-.L4)/2
 137 0017 25       		.byte	(.L16-.L4)/2
 138 0018 27       		.byte	(.L15-.L4)/2
 139 0019 29       		.byte	(.L14-.L4)/2
ARM GAS  /tmp/ccKv40C2.s 			page 8


 140 001a 2B       		.byte	(.L13-.L4)/2
 141 001b 2D       		.byte	(.L12-.L4)/2
 142 001c 2F       		.byte	(.L11-.L4)/2
 143 001d 31       		.byte	(.L10-.L4)/2
 144 001e 33       		.byte	(.L9-.L4)/2
 145 001f 35       		.byte	(.L8-.L4)/2
 146 0020 37       		.byte	(.L7-.L4)/2
 147 0021 39       		.byte	(.L6-.L4)/2
 148 0022 3B       		.byte	(.L5-.L4)/2
 149 0023 3D       		.byte	(.L3-.L4)/2
 150              		.p2align 1
 151              	.L29:
 152 0024 1A48     		ldr	r0, .L31
 153              	.LVL2:
 154              		.loc 1 249 5 view .LVU3
 155 0026 7047     		bx	lr
 156              	.L27:
 250:Core/Src/main.c **** 
 251:Core/Src/main.c ****     case 'A': return ".-";
 252:Core/Src/main.c ****     case 'B': return "-...";
 253:Core/Src/main.c ****     case 'C': return "-.-.";
 157              		.loc 1 253 15 is_stmt 1 view .LVU4
 158              		.loc 1 253 22 is_stmt 0 view .LVU5
 159 0028 1A48     		ldr	r0, .L31+4
 160 002a 7047     		bx	lr
 161              	.L26:
 254:Core/Src/main.c ****     case 'D': return "-..";
 162              		.loc 1 254 15 is_stmt 1 view .LVU6
 163              		.loc 1 254 22 is_stmt 0 view .LVU7
 164 002c 1A48     		ldr	r0, .L31+8
 165 002e 7047     		bx	lr
 166              	.L25:
 255:Core/Src/main.c ****     case 'E': return ".";
 167              		.loc 1 255 15 is_stmt 1 view .LVU8
 168              		.loc 1 255 22 is_stmt 0 view .LVU9
 169 0030 1A48     		ldr	r0, .L31+12
 170 0032 7047     		bx	lr
 171              	.L24:
 256:Core/Src/main.c ****     case 'F': return "..-.";
 172              		.loc 1 256 15 is_stmt 1 view .LVU10
 173              		.loc 1 256 22 is_stmt 0 view .LVU11
 174 0034 1A48     		ldr	r0, .L31+16
 175 0036 7047     		bx	lr
 176              	.L23:
 257:Core/Src/main.c ****     case 'G': return "--.";
 177              		.loc 1 257 15 is_stmt 1 view .LVU12
 178              		.loc 1 257 22 is_stmt 0 view .LVU13
 179 0038 1A48     		ldr	r0, .L31+20
 180 003a 7047     		bx	lr
 181              	.L22:
 258:Core/Src/main.c ****     case 'H': return "....";
 182              		.loc 1 258 15 is_stmt 1 view .LVU14
 183              		.loc 1 258 22 is_stmt 0 view .LVU15
 184 003c 1A48     		ldr	r0, .L31+24
 185 003e 7047     		bx	lr
 186              	.L21:
 259:Core/Src/main.c ****     case 'I': return "..";
ARM GAS  /tmp/ccKv40C2.s 			page 9


 187              		.loc 1 259 15 is_stmt 1 view .LVU16
 188              		.loc 1 259 22 is_stmt 0 view .LVU17
 189 0040 1A48     		ldr	r0, .L31+28
 190 0042 7047     		bx	lr
 191              	.L20:
 260:Core/Src/main.c ****     case 'J': return ".---";
 192              		.loc 1 260 15 is_stmt 1 view .LVU18
 193              		.loc 1 260 22 is_stmt 0 view .LVU19
 194 0044 1A48     		ldr	r0, .L31+32
 195 0046 7047     		bx	lr
 196              	.L19:
 261:Core/Src/main.c ****     case 'K': return "-.-";
 197              		.loc 1 261 15 is_stmt 1 view .LVU20
 198              		.loc 1 261 22 is_stmt 0 view .LVU21
 199 0048 1A48     		ldr	r0, .L31+36
 200 004a 7047     		bx	lr
 201              	.L18:
 262:Core/Src/main.c ****     case 'L': return ".-..";
 202              		.loc 1 262 15 is_stmt 1 view .LVU22
 203              		.loc 1 262 22 is_stmt 0 view .LVU23
 204 004c 1A48     		ldr	r0, .L31+40
 205 004e 7047     		bx	lr
 206              	.L17:
 263:Core/Src/main.c ****     case 'M': return "--";
 207              		.loc 1 263 15 is_stmt 1 view .LVU24
 208              		.loc 1 263 22 is_stmt 0 view .LVU25
 209 0050 1A48     		ldr	r0, .L31+44
 210 0052 7047     		bx	lr
 211              	.L16:
 264:Core/Src/main.c ****     case 'N': return "-.";
 212              		.loc 1 264 15 is_stmt 1 view .LVU26
 213              		.loc 1 264 22 is_stmt 0 view .LVU27
 214 0054 1A48     		ldr	r0, .L31+48
 215 0056 7047     		bx	lr
 216              	.L15:
 265:Core/Src/main.c ****     case 'O': return "---";
 217              		.loc 1 265 15 is_stmt 1 view .LVU28
 218              		.loc 1 265 22 is_stmt 0 view .LVU29
 219 0058 1A48     		ldr	r0, .L31+52
 220 005a 7047     		bx	lr
 221              	.L14:
 266:Core/Src/main.c ****     case 'P': return ".--.";
 222              		.loc 1 266 15 is_stmt 1 view .LVU30
 223              		.loc 1 266 22 is_stmt 0 view .LVU31
 224 005c 1A48     		ldr	r0, .L31+56
 225 005e 7047     		bx	lr
 226              	.L13:
 267:Core/Src/main.c ****     case 'Q': return "--.-";
 227              		.loc 1 267 15 is_stmt 1 view .LVU32
 228              		.loc 1 267 22 is_stmt 0 view .LVU33
 229 0060 1A48     		ldr	r0, .L31+60
 230 0062 7047     		bx	lr
 231              	.L12:
 268:Core/Src/main.c ****     case 'R': return ".-.";
 232              		.loc 1 268 15 is_stmt 1 view .LVU34
 233              		.loc 1 268 22 is_stmt 0 view .LVU35
 234 0064 1A48     		ldr	r0, .L31+64
ARM GAS  /tmp/ccKv40C2.s 			page 10


 235 0066 7047     		bx	lr
 236              	.L11:
 269:Core/Src/main.c ****     case 'S': return "...";
 237              		.loc 1 269 15 is_stmt 1 view .LVU36
 238              		.loc 1 269 22 is_stmt 0 view .LVU37
 239 0068 1A48     		ldr	r0, .L31+68
 240 006a 7047     		bx	lr
 241              	.L10:
 270:Core/Src/main.c ****     case 'T': return "-";
 242              		.loc 1 270 15 is_stmt 1 view .LVU38
 243              		.loc 1 270 22 is_stmt 0 view .LVU39
 244 006c 1A48     		ldr	r0, .L31+72
 245 006e 7047     		bx	lr
 246              	.L9:
 271:Core/Src/main.c ****     case 'U': return "..-";
 247              		.loc 1 271 15 is_stmt 1 view .LVU40
 248              		.loc 1 271 22 is_stmt 0 view .LVU41
 249 0070 1A48     		ldr	r0, .L31+76
 250 0072 7047     		bx	lr
 251              	.L8:
 272:Core/Src/main.c ****     case 'V': return "...-";
 252              		.loc 1 272 15 is_stmt 1 view .LVU42
 253              		.loc 1 272 22 is_stmt 0 view .LVU43
 254 0074 1A48     		ldr	r0, .L31+80
 255 0076 7047     		bx	lr
 256              	.L7:
 273:Core/Src/main.c ****     case 'W': return ".--";
 257              		.loc 1 273 15 is_stmt 1 view .LVU44
 258              		.loc 1 273 22 is_stmt 0 view .LVU45
 259 0078 1A48     		ldr	r0, .L31+84
 260 007a 7047     		bx	lr
 261              	.L6:
 274:Core/Src/main.c ****     case 'X': return "-..-";
 262              		.loc 1 274 15 is_stmt 1 view .LVU46
 263              		.loc 1 274 22 is_stmt 0 view .LVU47
 264 007c 1A48     		ldr	r0, .L31+88
 265 007e 7047     		bx	lr
 266              	.L5:
 275:Core/Src/main.c ****     case 'Y': return "-.--";
 267              		.loc 1 275 15 is_stmt 1 view .LVU48
 268              		.loc 1 275 22 is_stmt 0 view .LVU49
 269 0080 1A48     		ldr	r0, .L31+92
 270 0082 7047     		bx	lr
 271              	.L3:
 276:Core/Src/main.c ****     case 'Z': return "--..";
 272              		.loc 1 276 15 is_stmt 1 view .LVU50
 273              		.loc 1 276 22 is_stmt 0 view .LVU51
 274 0084 1A48     		ldr	r0, .L31+96
 275 0086 7047     		bx	lr
 276              	.L2:
 277:Core/Src/main.c ****     
 278:Core/Src/main.c ****     default: return "";
 277              		.loc 1 278 14 is_stmt 1 view .LVU52
 278              		.loc 1 278 21 is_stmt 0 view .LVU53
 279 0088 1A48     		ldr	r0, .L31+100
 280 008a 7047     		bx	lr
 281              	.L30:
ARM GAS  /tmp/ccKv40C2.s 			page 11


 252:Core/Src/main.c ****     case 'C': return "-.-.";
 282              		.loc 1 252 22 view .LVU54
 283 008c 1A48     		ldr	r0, .L31+104
 279:Core/Src/main.c ****   
 280:Core/Src/main.c ****   }
 281:Core/Src/main.c **** 
 282:Core/Src/main.c **** }
 284              		.loc 1 282 1 view .LVU55
 285 008e 7047     		bx	lr
 286              	.L32:
 287              		.align	2
 288              	.L31:
 289 0090 00000000 		.word	.LC0
 290 0094 0C000000 		.word	.LC2
 291 0098 14000000 		.word	.LC3
 292 009c 18000000 		.word	.LC4
 293 00a0 1C000000 		.word	.LC5
 294 00a4 24000000 		.word	.LC6
 295 00a8 28000000 		.word	.LC7
 296 00ac 30000000 		.word	.LC8
 297 00b0 34000000 		.word	.LC9
 298 00b4 3C000000 		.word	.LC10
 299 00b8 40000000 		.word	.LC11
 300 00bc 48000000 		.word	.LC12
 301 00c0 4C000000 		.word	.LC13
 302 00c4 50000000 		.word	.LC14
 303 00c8 54000000 		.word	.LC15
 304 00cc 5C000000 		.word	.LC16
 305 00d0 64000000 		.word	.LC17
 306 00d4 68000000 		.word	.LC18
 307 00d8 6C000000 		.word	.LC19
 308 00dc 70000000 		.word	.LC20
 309 00e0 74000000 		.word	.LC21
 310 00e4 7C000000 		.word	.LC22
 311 00e8 80000000 		.word	.LC23
 312 00ec 88000000 		.word	.LC24
 313 00f0 90000000 		.word	.LC25
 314 00f4 98000000 		.word	.LC26
 315 00f8 04000000 		.word	.LC1
 316              		.cfi_endproc
 317              	.LFE148:
 319              		.section	.rodata.morse_decoder.str1.4,"aMS",%progbits,1
 320              		.align	2
 321              	.LC27:
 322 0000 7C00     		.ascii	"|\000"
 323              		.section	.text.morse_decoder,"ax",%progbits
 324              		.align	1
 325              		.syntax unified
 326              		.thumb
 327              		.thumb_func
 329              	morse_decoder:
 330              	.LVL3:
 331              	.LFB149:
 283:Core/Src/main.c **** 
 284:Core/Src/main.c **** static void morse_decoder(const char * message, char * output) {
 332              		.loc 1 284 64 is_stmt 1 view -0
 333              		.cfi_startproc
ARM GAS  /tmp/ccKv40C2.s 			page 12


 334              		@ args = 0, pretend = 0, frame = 0
 335              		@ frame_needed = 0, uses_anonymous_args = 0
 336              		.loc 1 284 64 is_stmt 0 view .LVU57
 337 0000 70B5     		push	{r4, r5, r6, lr}
 338              	.LCFI0:
 339              		.cfi_def_cfa_offset 16
 340              		.cfi_offset 4, -16
 341              		.cfi_offset 5, -12
 342              		.cfi_offset 6, -8
 343              		.cfi_offset 14, -4
 344 0002 0646     		mov	r6, r0
 345 0004 0D46     		mov	r5, r1
 285:Core/Src/main.c **** 
 286:Core/Src/main.c ****   output[0] = '\0';
 346              		.loc 1 286 3 is_stmt 1 view .LVU58
 347              		.loc 1 286 13 is_stmt 0 view .LVU59
 348 0006 0024     		movs	r4, #0
 349 0008 0C70     		strb	r4, [r1]
 287:Core/Src/main.c **** 
 288:Core/Src/main.c ****   int i = 0;
 350              		.loc 1 288 3 is_stmt 1 view .LVU60
 351              	.LVL4:
 289:Core/Src/main.c **** 
 290:Core/Src/main.c ****   for(i = 0; message[i] != '\0'; i++) {
 352              		.loc 1 290 3 view .LVU61
 353              		.loc 1 290 3 is_stmt 0 view .LVU62
 354 000a 0CE0     		b	.L34
 355              	.LVL5:
 356              	.L35:
 357              	.LBB4:
 291:Core/Src/main.c **** 
 292:Core/Src/main.c ****     const char * morse = char_converter(message[i]);
 358              		.loc 1 292 5 is_stmt 1 view .LVU63
 359              		.loc 1 292 26 is_stmt 0 view .LVU64
 360 000c FFF7FEFF 		bl	char_converter
 361              	.LVL6:
 362 0010 0146     		mov	r1, r0
 363              	.LVL7:
 293:Core/Src/main.c **** 
 294:Core/Src/main.c ****     strcat(output, morse);
 364              		.loc 1 294 5 is_stmt 1 view .LVU65
 365 0012 2846     		mov	r0, r5
 366              	.LVL8:
 367              		.loc 1 294 5 is_stmt 0 view .LVU66
 368 0014 FFF7FEFF 		bl	strcat
 369              	.LVL9:
 295:Core/Src/main.c ****     strcat(output, "|");
 370              		.loc 1 295 5 is_stmt 1 view .LVU67
 371 0018 2846     		mov	r0, r5
 372 001a FFF7FEFF 		bl	strlen
 373              	.LVL10:
 374              		.loc 1 295 5 is_stmt 0 discriminator 1 view .LVU68
 375 001e 044B     		ldr	r3, .L37
 376 0020 1B88     		ldrh	r3, [r3]	@ unaligned
 377 0022 2B52     		strh	r3, [r5, r0]	@ unaligned
 378              	.LBE4:
 290:Core/Src/main.c **** 
ARM GAS  /tmp/ccKv40C2.s 			page 13


 379              		.loc 1 290 35 is_stmt 1 discriminator 3 view .LVU69
 380 0024 0134     		adds	r4, r4, #1
 381              	.LVL11:
 382              	.L34:
 290:Core/Src/main.c **** 
 383              		.loc 1 290 25 discriminator 1 view .LVU70
 290:Core/Src/main.c **** 
 384              		.loc 1 290 21 is_stmt 0 discriminator 1 view .LVU71
 385 0026 305D     		ldrb	r0, [r6, r4]	@ zero_extendqisi2
 290:Core/Src/main.c **** 
 386              		.loc 1 290 25 discriminator 1 view .LVU72
 387 0028 0028     		cmp	r0, #0
 388 002a EFD1     		bne	.L35
 296:Core/Src/main.c **** 
 297:Core/Src/main.c ****   }
 298:Core/Src/main.c **** 
 299:Core/Src/main.c **** }
 389              		.loc 1 299 1 view .LVU73
 390 002c 70BD     		pop	{r4, r5, r6, pc}
 391              	.LVL12:
 392              	.L38:
 393              		.loc 1 299 1 view .LVU74
 394 002e 00BF     		.align	2
 395              	.L37:
 396 0030 00000000 		.word	.LC27
 397              		.cfi_endproc
 398              	.LFE149:
 400              		.section	.text.MPU_Config,"ax",%progbits
 401              		.align	1
 402              		.syntax unified
 403              		.thumb
 404              		.thumb_func
 406              	MPU_Config:
 407              	.LFB153:
 300:Core/Src/main.c **** 
 301:Core/Src/main.c **** // LED Blink Functions
 302:Core/Src/main.c **** 
 303:Core/Src/main.c **** static void morse_dot(void) {
 304:Core/Src/main.c **** 
 305:Core/Src/main.c ****   HAL_GPIO_WritePin(GPIOB, OUTPUT_LED_Pin, GPIO_PIN_SET);
 306:Core/Src/main.c ****   HAL_Delay(500);
 307:Core/Src/main.c ****   HAL_GPIO_WritePin(GPIOB, OUTPUT_LED_Pin, GPIO_PIN_RESET);
 308:Core/Src/main.c **** 
 309:Core/Src/main.c **** }
 310:Core/Src/main.c **** 
 311:Core/Src/main.c **** static void morse_slash(void) {
 312:Core/Src/main.c **** 
 313:Core/Src/main.c ****   HAL_GPIO_WritePin(GPIOB, OUTPUT_LED_Pin, GPIO_PIN_SET);
 314:Core/Src/main.c ****   HAL_Delay(1500);
 315:Core/Src/main.c ****   HAL_GPIO_WritePin(GPIOB, OUTPUT_LED_Pin, GPIO_PIN_RESET);
 316:Core/Src/main.c **** 
 317:Core/Src/main.c **** }
 318:Core/Src/main.c **** 
 319:Core/Src/main.c **** static void morse_mod(void) {
 320:Core/Src/main.c **** 
 321:Core/Src/main.c ****   HAL_GPIO_WritePin(GPIOB, OUTPUT_LED_Pin, GPIO_PIN_RESET);
 322:Core/Src/main.c ****   HAL_Delay(1000);
ARM GAS  /tmp/ccKv40C2.s 			page 14


 323:Core/Src/main.c **** 
 324:Core/Src/main.c **** }
 325:Core/Src/main.c **** 
 326:Core/Src/main.c **** /* USER CODE END 4 */
 327:Core/Src/main.c **** 
 328:Core/Src/main.c ****  /* MPU Configuration */
 329:Core/Src/main.c **** 
 330:Core/Src/main.c **** void MPU_Config(void)
 331:Core/Src/main.c **** {
 408              		.loc 1 331 1 is_stmt 1 view -0
 409              		.cfi_startproc
 410              		@ args = 0, pretend = 0, frame = 16
 411              		@ frame_needed = 0, uses_anonymous_args = 0
 412 0000 10B5     		push	{r4, lr}
 413              	.LCFI1:
 414              		.cfi_def_cfa_offset 8
 415              		.cfi_offset 4, -8
 416              		.cfi_offset 14, -4
 417 0002 84B0     		sub	sp, sp, #16
 418              	.LCFI2:
 419              		.cfi_def_cfa_offset 24
 332:Core/Src/main.c ****   MPU_Region_InitTypeDef MPU_InitStruct = {0};
 420              		.loc 1 332 3 view .LVU76
 421              		.loc 1 332 26 is_stmt 0 view .LVU77
 422 0004 0024     		movs	r4, #0
 423 0006 0094     		str	r4, [sp]
 424 0008 0194     		str	r4, [sp, #4]
 425 000a 0294     		str	r4, [sp, #8]
 426 000c 0394     		str	r4, [sp, #12]
 333:Core/Src/main.c **** 
 334:Core/Src/main.c ****   /* Disables the MPU */
 335:Core/Src/main.c ****   HAL_MPU_Disable();
 427              		.loc 1 335 3 is_stmt 1 view .LVU78
 428 000e FFF7FEFF 		bl	HAL_MPU_Disable
 429              	.LVL13:
 336:Core/Src/main.c **** 
 337:Core/Src/main.c ****   /** Initializes and configures the Region and the memory to be protected
 338:Core/Src/main.c ****   */
 339:Core/Src/main.c ****   MPU_InitStruct.Enable = MPU_REGION_ENABLE;
 430              		.loc 1 339 3 view .LVU79
 431              		.loc 1 339 25 is_stmt 0 view .LVU80
 432 0012 0123     		movs	r3, #1
 433 0014 8DF80030 		strb	r3, [sp]
 340:Core/Src/main.c ****   MPU_InitStruct.Number = MPU_REGION_NUMBER0;
 434              		.loc 1 340 3 is_stmt 1 view .LVU81
 435              		.loc 1 340 25 is_stmt 0 view .LVU82
 436 0018 8DF80140 		strb	r4, [sp, #1]
 341:Core/Src/main.c ****   MPU_InitStruct.BaseAddress = 0x0;
 437              		.loc 1 341 3 is_stmt 1 view .LVU83
 438              		.loc 1 341 30 is_stmt 0 view .LVU84
 439 001c 0194     		str	r4, [sp, #4]
 342:Core/Src/main.c ****   MPU_InitStruct.Size = MPU_REGION_SIZE_4GB;
 440              		.loc 1 342 3 is_stmt 1 view .LVU85
 441              		.loc 1 342 23 is_stmt 0 view .LVU86
 442 001e 1F22     		movs	r2, #31
 443 0020 8DF80820 		strb	r2, [sp, #8]
 343:Core/Src/main.c ****   MPU_InitStruct.SubRegionDisable = 0x87;
ARM GAS  /tmp/ccKv40C2.s 			page 15


 444              		.loc 1 343 3 is_stmt 1 view .LVU87
 445              		.loc 1 343 35 is_stmt 0 view .LVU88
 446 0024 8722     		movs	r2, #135
 447 0026 8DF80920 		strb	r2, [sp, #9]
 344:Core/Src/main.c ****   MPU_InitStruct.TypeExtField = MPU_TEX_LEVEL0;
 448              		.loc 1 344 3 is_stmt 1 view .LVU89
 449              		.loc 1 344 31 is_stmt 0 view .LVU90
 450 002a 8DF80A40 		strb	r4, [sp, #10]
 345:Core/Src/main.c ****   MPU_InitStruct.AccessPermission = MPU_REGION_NO_ACCESS;
 451              		.loc 1 345 3 is_stmt 1 view .LVU91
 452              		.loc 1 345 35 is_stmt 0 view .LVU92
 453 002e 8DF80B40 		strb	r4, [sp, #11]
 346:Core/Src/main.c ****   MPU_InitStruct.DisableExec = MPU_INSTRUCTION_ACCESS_DISABLE;
 454              		.loc 1 346 3 is_stmt 1 view .LVU93
 455              		.loc 1 346 30 is_stmt 0 view .LVU94
 456 0032 8DF80C30 		strb	r3, [sp, #12]
 347:Core/Src/main.c ****   MPU_InitStruct.IsShareable = MPU_ACCESS_SHAREABLE;
 457              		.loc 1 347 3 is_stmt 1 view .LVU95
 458              		.loc 1 347 30 is_stmt 0 view .LVU96
 459 0036 8DF80D30 		strb	r3, [sp, #13]
 348:Core/Src/main.c ****   MPU_InitStruct.IsCacheable = MPU_ACCESS_NOT_CACHEABLE;
 460              		.loc 1 348 3 is_stmt 1 view .LVU97
 461              		.loc 1 348 30 is_stmt 0 view .LVU98
 462 003a 8DF80E40 		strb	r4, [sp, #14]
 349:Core/Src/main.c ****   MPU_InitStruct.IsBufferable = MPU_ACCESS_NOT_BUFFERABLE;
 463              		.loc 1 349 3 is_stmt 1 view .LVU99
 464              		.loc 1 349 31 is_stmt 0 view .LVU100
 465 003e 8DF80F40 		strb	r4, [sp, #15]
 350:Core/Src/main.c **** 
 351:Core/Src/main.c ****   HAL_MPU_ConfigRegion(&MPU_InitStruct);
 466              		.loc 1 351 3 is_stmt 1 view .LVU101
 467 0042 6846     		mov	r0, sp
 468 0044 FFF7FEFF 		bl	HAL_MPU_ConfigRegion
 469              	.LVL14:
 352:Core/Src/main.c ****   /* Enables the MPU */
 353:Core/Src/main.c ****   HAL_MPU_Enable(MPU_PRIVILEGED_DEFAULT);
 470              		.loc 1 353 3 view .LVU102
 471 0048 0420     		movs	r0, #4
 472 004a FFF7FEFF 		bl	HAL_MPU_Enable
 473              	.LVL15:
 354:Core/Src/main.c **** 
 355:Core/Src/main.c **** }
 474              		.loc 1 355 1 is_stmt 0 view .LVU103
 475 004e 04B0     		add	sp, sp, #16
 476              	.LCFI3:
 477              		.cfi_def_cfa_offset 8
 478              		@ sp needed
 479 0050 10BD     		pop	{r4, pc}
 480              		.cfi_endproc
 481              	.LFE153:
 483              		.section	.text.morse_dot,"ax",%progbits
 484              		.align	1
 485              		.syntax unified
 486              		.thumb
 487              		.thumb_func
 489              	morse_dot:
 490              	.LFB150:
ARM GAS  /tmp/ccKv40C2.s 			page 16


 303:Core/Src/main.c **** 
 491              		.loc 1 303 29 is_stmt 1 view -0
 492              		.cfi_startproc
 493              		@ args = 0, pretend = 0, frame = 0
 494              		@ frame_needed = 0, uses_anonymous_args = 0
 495 0000 10B5     		push	{r4, lr}
 496              	.LCFI4:
 497              		.cfi_def_cfa_offset 8
 498              		.cfi_offset 4, -8
 499              		.cfi_offset 14, -4
 305:Core/Src/main.c ****   HAL_Delay(500);
 500              		.loc 1 305 3 view .LVU105
 501 0002 094C     		ldr	r4, .L43
 502 0004 0122     		movs	r2, #1
 503 0006 4FF48041 		mov	r1, #16384
 504 000a 2046     		mov	r0, r4
 505 000c FFF7FEFF 		bl	HAL_GPIO_WritePin
 506              	.LVL16:
 306:Core/Src/main.c ****   HAL_GPIO_WritePin(GPIOB, OUTPUT_LED_Pin, GPIO_PIN_RESET);
 507              		.loc 1 306 3 view .LVU106
 508 0010 4FF4FA70 		mov	r0, #500
 509 0014 FFF7FEFF 		bl	HAL_Delay
 510              	.LVL17:
 307:Core/Src/main.c **** 
 511              		.loc 1 307 3 view .LVU107
 512 0018 0022     		movs	r2, #0
 513 001a 4FF48041 		mov	r1, #16384
 514 001e 2046     		mov	r0, r4
 515 0020 FFF7FEFF 		bl	HAL_GPIO_WritePin
 516              	.LVL18:
 309:Core/Src/main.c **** 
 517              		.loc 1 309 1 is_stmt 0 view .LVU108
 518 0024 10BD     		pop	{r4, pc}
 519              	.L44:
 520 0026 00BF     		.align	2
 521              	.L43:
 522 0028 00040240 		.word	1073873920
 523              		.cfi_endproc
 524              	.LFE150:
 526              		.section	.text.morse_slash,"ax",%progbits
 527              		.align	1
 528              		.syntax unified
 529              		.thumb
 530              		.thumb_func
 532              	morse_slash:
 533              	.LFB151:
 311:Core/Src/main.c **** 
 534              		.loc 1 311 31 is_stmt 1 view -0
 535              		.cfi_startproc
 536              		@ args = 0, pretend = 0, frame = 0
 537              		@ frame_needed = 0, uses_anonymous_args = 0
 538 0000 10B5     		push	{r4, lr}
 539              	.LCFI5:
 540              		.cfi_def_cfa_offset 8
 541              		.cfi_offset 4, -8
 542              		.cfi_offset 14, -4
 313:Core/Src/main.c ****   HAL_Delay(1500);
ARM GAS  /tmp/ccKv40C2.s 			page 17


 543              		.loc 1 313 3 view .LVU110
 544 0002 094C     		ldr	r4, .L47
 545 0004 0122     		movs	r2, #1
 546 0006 4FF48041 		mov	r1, #16384
 547 000a 2046     		mov	r0, r4
 548 000c FFF7FEFF 		bl	HAL_GPIO_WritePin
 549              	.LVL19:
 314:Core/Src/main.c ****   HAL_GPIO_WritePin(GPIOB, OUTPUT_LED_Pin, GPIO_PIN_RESET);
 550              		.loc 1 314 3 view .LVU111
 551 0010 40F2DC50 		movw	r0, #1500
 552 0014 FFF7FEFF 		bl	HAL_Delay
 553              	.LVL20:
 315:Core/Src/main.c **** 
 554              		.loc 1 315 3 view .LVU112
 555 0018 0022     		movs	r2, #0
 556 001a 4FF48041 		mov	r1, #16384
 557 001e 2046     		mov	r0, r4
 558 0020 FFF7FEFF 		bl	HAL_GPIO_WritePin
 559              	.LVL21:
 317:Core/Src/main.c **** 
 560              		.loc 1 317 1 is_stmt 0 view .LVU113
 561 0024 10BD     		pop	{r4, pc}
 562              	.L48:
 563 0026 00BF     		.align	2
 564              	.L47:
 565 0028 00040240 		.word	1073873920
 566              		.cfi_endproc
 567              	.LFE151:
 569              		.section	.text.morse_mod,"ax",%progbits
 570              		.align	1
 571              		.syntax unified
 572              		.thumb
 573              		.thumb_func
 575              	morse_mod:
 576              	.LFB152:
 319:Core/Src/main.c **** 
 577              		.loc 1 319 29 is_stmt 1 view -0
 578              		.cfi_startproc
 579              		@ args = 0, pretend = 0, frame = 0
 580              		@ frame_needed = 0, uses_anonymous_args = 0
 581 0000 08B5     		push	{r3, lr}
 582              	.LCFI6:
 583              		.cfi_def_cfa_offset 8
 584              		.cfi_offset 3, -8
 585              		.cfi_offset 14, -4
 321:Core/Src/main.c ****   HAL_Delay(1000);
 586              		.loc 1 321 3 view .LVU115
 587 0002 0022     		movs	r2, #0
 588 0004 4FF48041 		mov	r1, #16384
 589 0008 0348     		ldr	r0, .L51
 590 000a FFF7FEFF 		bl	HAL_GPIO_WritePin
 591              	.LVL22:
 322:Core/Src/main.c **** 
 592              		.loc 1 322 3 view .LVU116
 593 000e 4FF47A70 		mov	r0, #1000
 594 0012 FFF7FEFF 		bl	HAL_Delay
 595              	.LVL23:
ARM GAS  /tmp/ccKv40C2.s 			page 18


 324:Core/Src/main.c **** 
 596              		.loc 1 324 1 is_stmt 0 view .LVU117
 597 0016 08BD     		pop	{r3, pc}
 598              	.L52:
 599              		.align	2
 600              	.L51:
 601 0018 00040240 		.word	1073873920
 602              		.cfi_endproc
 603              	.LFE152:
 605              		.section	.text.MX_GPIO_Init,"ax",%progbits
 606              		.align	1
 607              		.syntax unified
 608              		.thumb
 609              		.thumb_func
 611              	MX_GPIO_Init:
 612              	.LFB147:
 211:Core/Src/main.c ****   GPIO_InitTypeDef GPIO_InitStruct = {0};
 613              		.loc 1 211 1 is_stmt 1 view -0
 614              		.cfi_startproc
 615              		@ args = 0, pretend = 0, frame = 32
 616              		@ frame_needed = 0, uses_anonymous_args = 0
 617 0000 30B5     		push	{r4, r5, lr}
 618              	.LCFI7:
 619              		.cfi_def_cfa_offset 12
 620              		.cfi_offset 4, -12
 621              		.cfi_offset 5, -8
 622              		.cfi_offset 14, -4
 623 0002 89B0     		sub	sp, sp, #36
 624              	.LCFI8:
 625              		.cfi_def_cfa_offset 48
 212:Core/Src/main.c ****   /* USER CODE BEGIN MX_GPIO_Init_1 */
 626              		.loc 1 212 3 view .LVU119
 212:Core/Src/main.c ****   /* USER CODE BEGIN MX_GPIO_Init_1 */
 627              		.loc 1 212 20 is_stmt 0 view .LVU120
 628 0004 0024     		movs	r4, #0
 629 0006 0394     		str	r4, [sp, #12]
 630 0008 0494     		str	r4, [sp, #16]
 631 000a 0594     		str	r4, [sp, #20]
 632 000c 0694     		str	r4, [sp, #24]
 633 000e 0794     		str	r4, [sp, #28]
 218:Core/Src/main.c ****   __HAL_RCC_GPIOH_CLK_ENABLE();
 634              		.loc 1 218 3 is_stmt 1 view .LVU121
 635              	.LBB5:
 218:Core/Src/main.c ****   __HAL_RCC_GPIOH_CLK_ENABLE();
 636              		.loc 1 218 3 view .LVU122
 218:Core/Src/main.c ****   __HAL_RCC_GPIOH_CLK_ENABLE();
 637              		.loc 1 218 3 view .LVU123
 638 0010 1C4B     		ldr	r3, .L55
 639 0012 1A6B     		ldr	r2, [r3, #48]
 640 0014 42F00402 		orr	r2, r2, #4
 641 0018 1A63     		str	r2, [r3, #48]
 218:Core/Src/main.c ****   __HAL_RCC_GPIOH_CLK_ENABLE();
 642              		.loc 1 218 3 view .LVU124
 643 001a 1A6B     		ldr	r2, [r3, #48]
 644 001c 02F00402 		and	r2, r2, #4
 645 0020 0092     		str	r2, [sp]
 218:Core/Src/main.c ****   __HAL_RCC_GPIOH_CLK_ENABLE();
ARM GAS  /tmp/ccKv40C2.s 			page 19


 646              		.loc 1 218 3 view .LVU125
 647 0022 009A     		ldr	r2, [sp]
 648              	.LBE5:
 218:Core/Src/main.c ****   __HAL_RCC_GPIOH_CLK_ENABLE();
 649              		.loc 1 218 3 view .LVU126
 219:Core/Src/main.c ****   __HAL_RCC_GPIOB_CLK_ENABLE();
 650              		.loc 1 219 3 view .LVU127
 651              	.LBB6:
 219:Core/Src/main.c ****   __HAL_RCC_GPIOB_CLK_ENABLE();
 652              		.loc 1 219 3 view .LVU128
 219:Core/Src/main.c ****   __HAL_RCC_GPIOB_CLK_ENABLE();
 653              		.loc 1 219 3 view .LVU129
 654 0024 1A6B     		ldr	r2, [r3, #48]
 655 0026 42F08002 		orr	r2, r2, #128
 656 002a 1A63     		str	r2, [r3, #48]
 219:Core/Src/main.c ****   __HAL_RCC_GPIOB_CLK_ENABLE();
 657              		.loc 1 219 3 view .LVU130
 658 002c 1A6B     		ldr	r2, [r3, #48]
 659 002e 02F08002 		and	r2, r2, #128
 660 0032 0192     		str	r2, [sp, #4]
 219:Core/Src/main.c ****   __HAL_RCC_GPIOB_CLK_ENABLE();
 661              		.loc 1 219 3 view .LVU131
 662 0034 019A     		ldr	r2, [sp, #4]
 663              	.LBE6:
 219:Core/Src/main.c ****   __HAL_RCC_GPIOB_CLK_ENABLE();
 664              		.loc 1 219 3 view .LVU132
 220:Core/Src/main.c **** 
 665              		.loc 1 220 3 view .LVU133
 666              	.LBB7:
 220:Core/Src/main.c **** 
 667              		.loc 1 220 3 view .LVU134
 220:Core/Src/main.c **** 
 668              		.loc 1 220 3 view .LVU135
 669 0036 1A6B     		ldr	r2, [r3, #48]
 670 0038 42F00202 		orr	r2, r2, #2
 671 003c 1A63     		str	r2, [r3, #48]
 220:Core/Src/main.c **** 
 672              		.loc 1 220 3 view .LVU136
 673 003e 1B6B     		ldr	r3, [r3, #48]
 674 0040 03F00203 		and	r3, r3, #2
 675 0044 0293     		str	r3, [sp, #8]
 220:Core/Src/main.c **** 
 676              		.loc 1 220 3 view .LVU137
 677 0046 029B     		ldr	r3, [sp, #8]
 678              	.LBE7:
 220:Core/Src/main.c **** 
 679              		.loc 1 220 3 view .LVU138
 223:Core/Src/main.c **** 
 680              		.loc 1 223 3 view .LVU139
 681 0048 0F4D     		ldr	r5, .L55+4
 682 004a 2246     		mov	r2, r4
 683 004c 4FF48041 		mov	r1, #16384
 684 0050 2846     		mov	r0, r5
 685 0052 FFF7FEFF 		bl	HAL_GPIO_WritePin
 686              	.LVL24:
 226:Core/Src/main.c ****   GPIO_InitStruct.Mode = GPIO_MODE_INPUT;
 687              		.loc 1 226 3 view .LVU140
ARM GAS  /tmp/ccKv40C2.s 			page 20


 226:Core/Src/main.c ****   GPIO_InitStruct.Mode = GPIO_MODE_INPUT;
 688              		.loc 1 226 23 is_stmt 0 view .LVU141
 689 0056 4FF40053 		mov	r3, #8192
 690 005a 0393     		str	r3, [sp, #12]
 227:Core/Src/main.c ****   GPIO_InitStruct.Pull = GPIO_PULLDOWN;
 691              		.loc 1 227 3 is_stmt 1 view .LVU142
 227:Core/Src/main.c ****   GPIO_InitStruct.Pull = GPIO_PULLDOWN;
 692              		.loc 1 227 24 is_stmt 0 view .LVU143
 693 005c 0494     		str	r4, [sp, #16]
 228:Core/Src/main.c ****   HAL_GPIO_Init(INPUT_GPIO_Port, &GPIO_InitStruct);
 694              		.loc 1 228 3 is_stmt 1 view .LVU144
 228:Core/Src/main.c ****   HAL_GPIO_Init(INPUT_GPIO_Port, &GPIO_InitStruct);
 695              		.loc 1 228 24 is_stmt 0 view .LVU145
 696 005e 0223     		movs	r3, #2
 697 0060 0593     		str	r3, [sp, #20]
 229:Core/Src/main.c **** 
 698              		.loc 1 229 3 is_stmt 1 view .LVU146
 699 0062 03A9     		add	r1, sp, #12
 700 0064 0948     		ldr	r0, .L55+8
 701 0066 FFF7FEFF 		bl	HAL_GPIO_Init
 702              	.LVL25:
 232:Core/Src/main.c ****   GPIO_InitStruct.Mode = GPIO_MODE_OUTPUT_PP;
 703              		.loc 1 232 3 view .LVU147
 232:Core/Src/main.c ****   GPIO_InitStruct.Mode = GPIO_MODE_OUTPUT_PP;
 704              		.loc 1 232 23 is_stmt 0 view .LVU148
 705 006a 4FF48043 		mov	r3, #16384
 706 006e 0393     		str	r3, [sp, #12]
 233:Core/Src/main.c ****   GPIO_InitStruct.Pull = GPIO_NOPULL;
 707              		.loc 1 233 3 is_stmt 1 view .LVU149
 233:Core/Src/main.c ****   GPIO_InitStruct.Pull = GPIO_NOPULL;
 708              		.loc 1 233 24 is_stmt 0 view .LVU150
 709 0070 0123     		movs	r3, #1
 710 0072 0493     		str	r3, [sp, #16]
 234:Core/Src/main.c ****   GPIO_InitStruct.Speed = GPIO_SPEED_FREQ_LOW;
 711              		.loc 1 234 3 is_stmt 1 view .LVU151
 234:Core/Src/main.c ****   GPIO_InitStruct.Speed = GPIO_SPEED_FREQ_LOW;
 712              		.loc 1 234 24 is_stmt 0 view .LVU152
 713 0074 0594     		str	r4, [sp, #20]
 235:Core/Src/main.c ****   HAL_GPIO_Init(OUTPUT_LED_GPIO_Port, &GPIO_InitStruct);
 714              		.loc 1 235 3 is_stmt 1 view .LVU153
 235:Core/Src/main.c ****   HAL_GPIO_Init(OUTPUT_LED_GPIO_Port, &GPIO_InitStruct);
 715              		.loc 1 235 25 is_stmt 0 view .LVU154
 716 0076 0694     		str	r4, [sp, #24]
 236:Core/Src/main.c **** 
 717              		.loc 1 236 3 is_stmt 1 view .LVU155
 718 0078 03A9     		add	r1, sp, #12
 719 007a 2846     		mov	r0, r5
 720 007c FFF7FEFF 		bl	HAL_GPIO_Init
 721              	.LVL26:
 241:Core/Src/main.c **** 
 722              		.loc 1 241 1 is_stmt 0 view .LVU156
 723 0080 09B0     		add	sp, sp, #36
 724              	.LCFI9:
 725              		.cfi_def_cfa_offset 12
 726              		@ sp needed
 727 0082 30BD     		pop	{r4, r5, pc}
 728              	.L56:
ARM GAS  /tmp/ccKv40C2.s 			page 21


 729              		.align	2
 730              	.L55:
 731 0084 00380240 		.word	1073887232
 732 0088 00040240 		.word	1073873920
 733 008c 00080240 		.word	1073874944
 734              		.cfi_endproc
 735              	.LFE147:
 737              		.section	.text.Error_Handler,"ax",%progbits
 738              		.align	1
 739              		.global	Error_Handler
 740              		.syntax unified
 741              		.thumb
 742              		.thumb_func
 744              	Error_Handler:
 745              	.LFB154:
 356:Core/Src/main.c **** 
 357:Core/Src/main.c **** /**
 358:Core/Src/main.c ****   * @brief  This function is executed in case of error occurrence.
 359:Core/Src/main.c ****   * @retval None
 360:Core/Src/main.c ****   */
 361:Core/Src/main.c **** void Error_Handler(void)
 362:Core/Src/main.c **** {
 746              		.loc 1 362 1 is_stmt 1 view -0
 747              		.cfi_startproc
 748              		@ Volatile: function does not return.
 749              		@ args = 0, pretend = 0, frame = 0
 750              		@ frame_needed = 0, uses_anonymous_args = 0
 751              		@ link register save eliminated.
 363:Core/Src/main.c ****   /* USER CODE BEGIN Error_Handler_Debug */
 364:Core/Src/main.c ****   /* User can add his own implementation to report the HAL error return state */
 365:Core/Src/main.c ****   __disable_irq();
 752              		.loc 1 365 3 view .LVU158
 753              	.LBB8:
 754              	.LBI8:
 755              		.file 2 "Drivers/CMSIS/Include/cmsis_gcc.h"
   1:Drivers/CMSIS/Include/cmsis_gcc.h **** /**************************************************************************//**
   2:Drivers/CMSIS/Include/cmsis_gcc.h ****  * @file     cmsis_gcc.h
   3:Drivers/CMSIS/Include/cmsis_gcc.h ****  * @brief    CMSIS compiler GCC header file
   4:Drivers/CMSIS/Include/cmsis_gcc.h ****  * @version  V5.0.4
   5:Drivers/CMSIS/Include/cmsis_gcc.h ****  * @date     09. April 2018
   6:Drivers/CMSIS/Include/cmsis_gcc.h ****  ******************************************************************************/
   7:Drivers/CMSIS/Include/cmsis_gcc.h **** /*
   8:Drivers/CMSIS/Include/cmsis_gcc.h ****  * Copyright (c) 2009-2018 Arm Limited. All rights reserved.
   9:Drivers/CMSIS/Include/cmsis_gcc.h ****  *
  10:Drivers/CMSIS/Include/cmsis_gcc.h ****  * SPDX-License-Identifier: Apache-2.0
  11:Drivers/CMSIS/Include/cmsis_gcc.h ****  *
  12:Drivers/CMSIS/Include/cmsis_gcc.h ****  * Licensed under the Apache License, Version 2.0 (the License); you may
  13:Drivers/CMSIS/Include/cmsis_gcc.h ****  * not use this file except in compliance with the License.
  14:Drivers/CMSIS/Include/cmsis_gcc.h ****  * You may obtain a copy of the License at
  15:Drivers/CMSIS/Include/cmsis_gcc.h ****  *
  16:Drivers/CMSIS/Include/cmsis_gcc.h ****  * www.apache.org/licenses/LICENSE-2.0
  17:Drivers/CMSIS/Include/cmsis_gcc.h ****  *
  18:Drivers/CMSIS/Include/cmsis_gcc.h ****  * Unless required by applicable law or agreed to in writing, software
  19:Drivers/CMSIS/Include/cmsis_gcc.h ****  * distributed under the License is distributed on an AS IS BASIS, WITHOUT
  20:Drivers/CMSIS/Include/cmsis_gcc.h ****  * WARRANTIES OR CONDITIONS OF ANY KIND, either express or implied.
  21:Drivers/CMSIS/Include/cmsis_gcc.h ****  * See the License for the specific language governing permissions and
  22:Drivers/CMSIS/Include/cmsis_gcc.h ****  * limitations under the License.
ARM GAS  /tmp/ccKv40C2.s 			page 22


  23:Drivers/CMSIS/Include/cmsis_gcc.h ****  */
  24:Drivers/CMSIS/Include/cmsis_gcc.h **** 
  25:Drivers/CMSIS/Include/cmsis_gcc.h **** #ifndef __CMSIS_GCC_H
  26:Drivers/CMSIS/Include/cmsis_gcc.h **** #define __CMSIS_GCC_H
  27:Drivers/CMSIS/Include/cmsis_gcc.h **** 
  28:Drivers/CMSIS/Include/cmsis_gcc.h **** /* ignore some GCC warnings */
  29:Drivers/CMSIS/Include/cmsis_gcc.h **** #pragma GCC diagnostic push
  30:Drivers/CMSIS/Include/cmsis_gcc.h **** #pragma GCC diagnostic ignored "-Wsign-conversion"
  31:Drivers/CMSIS/Include/cmsis_gcc.h **** #pragma GCC diagnostic ignored "-Wconversion"
  32:Drivers/CMSIS/Include/cmsis_gcc.h **** #pragma GCC diagnostic ignored "-Wunused-parameter"
  33:Drivers/CMSIS/Include/cmsis_gcc.h **** 
  34:Drivers/CMSIS/Include/cmsis_gcc.h **** /* Fallback for __has_builtin */
  35:Drivers/CMSIS/Include/cmsis_gcc.h **** #ifndef __has_builtin
  36:Drivers/CMSIS/Include/cmsis_gcc.h ****   #define __has_builtin(x) (0)
  37:Drivers/CMSIS/Include/cmsis_gcc.h **** #endif
  38:Drivers/CMSIS/Include/cmsis_gcc.h **** 
  39:Drivers/CMSIS/Include/cmsis_gcc.h **** /* CMSIS compiler specific defines */
  40:Drivers/CMSIS/Include/cmsis_gcc.h **** #ifndef   __ASM
  41:Drivers/CMSIS/Include/cmsis_gcc.h ****   #define __ASM                                  __asm
  42:Drivers/CMSIS/Include/cmsis_gcc.h **** #endif
  43:Drivers/CMSIS/Include/cmsis_gcc.h **** #ifndef   __INLINE
  44:Drivers/CMSIS/Include/cmsis_gcc.h ****   #define __INLINE                               inline
  45:Drivers/CMSIS/Include/cmsis_gcc.h **** #endif
  46:Drivers/CMSIS/Include/cmsis_gcc.h **** #ifndef   __STATIC_INLINE
  47:Drivers/CMSIS/Include/cmsis_gcc.h ****   #define __STATIC_INLINE                        static inline
  48:Drivers/CMSIS/Include/cmsis_gcc.h **** #endif
  49:Drivers/CMSIS/Include/cmsis_gcc.h **** #ifndef   __STATIC_FORCEINLINE                 
  50:Drivers/CMSIS/Include/cmsis_gcc.h ****   #define __STATIC_FORCEINLINE                   __attribute__((always_inline)) static inline
  51:Drivers/CMSIS/Include/cmsis_gcc.h **** #endif                                           
  52:Drivers/CMSIS/Include/cmsis_gcc.h **** #ifndef   __NO_RETURN
  53:Drivers/CMSIS/Include/cmsis_gcc.h ****   #define __NO_RETURN                            __attribute__((__noreturn__))
  54:Drivers/CMSIS/Include/cmsis_gcc.h **** #endif
  55:Drivers/CMSIS/Include/cmsis_gcc.h **** #ifndef   __USED
  56:Drivers/CMSIS/Include/cmsis_gcc.h ****   #define __USED                                 __attribute__((used))
  57:Drivers/CMSIS/Include/cmsis_gcc.h **** #endif
  58:Drivers/CMSIS/Include/cmsis_gcc.h **** #ifndef   __WEAK
  59:Drivers/CMSIS/Include/cmsis_gcc.h ****   #define __WEAK                                 __attribute__((weak))
  60:Drivers/CMSIS/Include/cmsis_gcc.h **** #endif
  61:Drivers/CMSIS/Include/cmsis_gcc.h **** #ifndef   __PACKED
  62:Drivers/CMSIS/Include/cmsis_gcc.h ****   #define __PACKED                               __attribute__((packed, aligned(1)))
  63:Drivers/CMSIS/Include/cmsis_gcc.h **** #endif
  64:Drivers/CMSIS/Include/cmsis_gcc.h **** #ifndef   __PACKED_STRUCT
  65:Drivers/CMSIS/Include/cmsis_gcc.h ****   #define __PACKED_STRUCT                        struct __attribute__((packed, aligned(1)))
  66:Drivers/CMSIS/Include/cmsis_gcc.h **** #endif
  67:Drivers/CMSIS/Include/cmsis_gcc.h **** #ifndef   __PACKED_UNION
  68:Drivers/CMSIS/Include/cmsis_gcc.h ****   #define __PACKED_UNION                         union __attribute__((packed, aligned(1)))
  69:Drivers/CMSIS/Include/cmsis_gcc.h **** #endif
  70:Drivers/CMSIS/Include/cmsis_gcc.h **** #ifndef   __UNALIGNED_UINT32        /* deprecated */
  71:Drivers/CMSIS/Include/cmsis_gcc.h ****   #pragma GCC diagnostic push
  72:Drivers/CMSIS/Include/cmsis_gcc.h ****   #pragma GCC diagnostic ignored "-Wpacked"
  73:Drivers/CMSIS/Include/cmsis_gcc.h ****   #pragma GCC diagnostic ignored "-Wattributes"
  74:Drivers/CMSIS/Include/cmsis_gcc.h ****   struct __attribute__((packed)) T_UINT32 { uint32_t v; };
  75:Drivers/CMSIS/Include/cmsis_gcc.h ****   #pragma GCC diagnostic pop
  76:Drivers/CMSIS/Include/cmsis_gcc.h ****   #define __UNALIGNED_UINT32(x)                  (((struct T_UINT32 *)(x))->v)
  77:Drivers/CMSIS/Include/cmsis_gcc.h **** #endif
  78:Drivers/CMSIS/Include/cmsis_gcc.h **** #ifndef   __UNALIGNED_UINT16_WRITE
  79:Drivers/CMSIS/Include/cmsis_gcc.h ****   #pragma GCC diagnostic push
ARM GAS  /tmp/ccKv40C2.s 			page 23


  80:Drivers/CMSIS/Include/cmsis_gcc.h ****   #pragma GCC diagnostic ignored "-Wpacked"
  81:Drivers/CMSIS/Include/cmsis_gcc.h ****   #pragma GCC diagnostic ignored "-Wattributes"
  82:Drivers/CMSIS/Include/cmsis_gcc.h ****   __PACKED_STRUCT T_UINT16_WRITE { uint16_t v; };
  83:Drivers/CMSIS/Include/cmsis_gcc.h ****   #pragma GCC diagnostic pop
  84:Drivers/CMSIS/Include/cmsis_gcc.h ****   #define __UNALIGNED_UINT16_WRITE(addr, val)    (void)((((struct T_UINT16_WRITE *)(void *)(addr))-
  85:Drivers/CMSIS/Include/cmsis_gcc.h **** #endif
  86:Drivers/CMSIS/Include/cmsis_gcc.h **** #ifndef   __UNALIGNED_UINT16_READ
  87:Drivers/CMSIS/Include/cmsis_gcc.h ****   #pragma GCC diagnostic push
  88:Drivers/CMSIS/Include/cmsis_gcc.h ****   #pragma GCC diagnostic ignored "-Wpacked"
  89:Drivers/CMSIS/Include/cmsis_gcc.h ****   #pragma GCC diagnostic ignored "-Wattributes"
  90:Drivers/CMSIS/Include/cmsis_gcc.h ****   __PACKED_STRUCT T_UINT16_READ { uint16_t v; };
  91:Drivers/CMSIS/Include/cmsis_gcc.h ****   #pragma GCC diagnostic pop
  92:Drivers/CMSIS/Include/cmsis_gcc.h ****   #define __UNALIGNED_UINT16_READ(addr)          (((const struct T_UINT16_READ *)(const void *)(add
  93:Drivers/CMSIS/Include/cmsis_gcc.h **** #endif
  94:Drivers/CMSIS/Include/cmsis_gcc.h **** #ifndef   __UNALIGNED_UINT32_WRITE
  95:Drivers/CMSIS/Include/cmsis_gcc.h ****   #pragma GCC diagnostic push
  96:Drivers/CMSIS/Include/cmsis_gcc.h ****   #pragma GCC diagnostic ignored "-Wpacked"
  97:Drivers/CMSIS/Include/cmsis_gcc.h ****   #pragma GCC diagnostic ignored "-Wattributes"
  98:Drivers/CMSIS/Include/cmsis_gcc.h ****   __PACKED_STRUCT T_UINT32_WRITE { uint32_t v; };
  99:Drivers/CMSIS/Include/cmsis_gcc.h ****   #pragma GCC diagnostic pop
 100:Drivers/CMSIS/Include/cmsis_gcc.h ****   #define __UNALIGNED_UINT32_WRITE(addr, val)    (void)((((struct T_UINT32_WRITE *)(void *)(addr))-
 101:Drivers/CMSIS/Include/cmsis_gcc.h **** #endif
 102:Drivers/CMSIS/Include/cmsis_gcc.h **** #ifndef   __UNALIGNED_UINT32_READ
 103:Drivers/CMSIS/Include/cmsis_gcc.h ****   #pragma GCC diagnostic push
 104:Drivers/CMSIS/Include/cmsis_gcc.h ****   #pragma GCC diagnostic ignored "-Wpacked"
 105:Drivers/CMSIS/Include/cmsis_gcc.h ****   #pragma GCC diagnostic ignored "-Wattributes"
 106:Drivers/CMSIS/Include/cmsis_gcc.h ****   __PACKED_STRUCT T_UINT32_READ { uint32_t v; };
 107:Drivers/CMSIS/Include/cmsis_gcc.h ****   #pragma GCC diagnostic pop
 108:Drivers/CMSIS/Include/cmsis_gcc.h ****   #define __UNALIGNED_UINT32_READ(addr)          (((const struct T_UINT32_READ *)(const void *)(add
 109:Drivers/CMSIS/Include/cmsis_gcc.h **** #endif
 110:Drivers/CMSIS/Include/cmsis_gcc.h **** #ifndef   __ALIGNED
 111:Drivers/CMSIS/Include/cmsis_gcc.h ****   #define __ALIGNED(x)                           __attribute__((aligned(x)))
 112:Drivers/CMSIS/Include/cmsis_gcc.h **** #endif
 113:Drivers/CMSIS/Include/cmsis_gcc.h **** #ifndef   __RESTRICT
 114:Drivers/CMSIS/Include/cmsis_gcc.h ****   #define __RESTRICT                             __restrict
 115:Drivers/CMSIS/Include/cmsis_gcc.h **** #endif
 116:Drivers/CMSIS/Include/cmsis_gcc.h **** 
 117:Drivers/CMSIS/Include/cmsis_gcc.h **** 
 118:Drivers/CMSIS/Include/cmsis_gcc.h **** /* ###########################  Core Function Access  ########################### */
 119:Drivers/CMSIS/Include/cmsis_gcc.h **** /** \ingroup  CMSIS_Core_FunctionInterface
 120:Drivers/CMSIS/Include/cmsis_gcc.h ****     \defgroup CMSIS_Core_RegAccFunctions CMSIS Core Register Access Functions
 121:Drivers/CMSIS/Include/cmsis_gcc.h ****   @{
 122:Drivers/CMSIS/Include/cmsis_gcc.h ****  */
 123:Drivers/CMSIS/Include/cmsis_gcc.h **** 
 124:Drivers/CMSIS/Include/cmsis_gcc.h **** /**
 125:Drivers/CMSIS/Include/cmsis_gcc.h ****   \brief   Enable IRQ Interrupts
 126:Drivers/CMSIS/Include/cmsis_gcc.h ****   \details Enables IRQ interrupts by clearing the I-bit in the CPSR.
 127:Drivers/CMSIS/Include/cmsis_gcc.h ****            Can only be executed in Privileged modes.
 128:Drivers/CMSIS/Include/cmsis_gcc.h ****  */
 129:Drivers/CMSIS/Include/cmsis_gcc.h **** __STATIC_FORCEINLINE void __enable_irq(void)
 130:Drivers/CMSIS/Include/cmsis_gcc.h **** {
 131:Drivers/CMSIS/Include/cmsis_gcc.h ****   __ASM volatile ("cpsie i" : : : "memory");
 132:Drivers/CMSIS/Include/cmsis_gcc.h **** }
 133:Drivers/CMSIS/Include/cmsis_gcc.h **** 
 134:Drivers/CMSIS/Include/cmsis_gcc.h **** 
 135:Drivers/CMSIS/Include/cmsis_gcc.h **** /**
 136:Drivers/CMSIS/Include/cmsis_gcc.h ****   \brief   Disable IRQ Interrupts
ARM GAS  /tmp/ccKv40C2.s 			page 24


 137:Drivers/CMSIS/Include/cmsis_gcc.h ****   \details Disables IRQ interrupts by setting the I-bit in the CPSR.
 138:Drivers/CMSIS/Include/cmsis_gcc.h ****            Can only be executed in Privileged modes.
 139:Drivers/CMSIS/Include/cmsis_gcc.h ****  */
 140:Drivers/CMSIS/Include/cmsis_gcc.h **** __STATIC_FORCEINLINE void __disable_irq(void)
 756              		.loc 2 140 27 view .LVU159
 757              	.LBB9:
 141:Drivers/CMSIS/Include/cmsis_gcc.h **** {
 142:Drivers/CMSIS/Include/cmsis_gcc.h ****   __ASM volatile ("cpsid i" : : : "memory");
 758              		.loc 2 142 3 view .LVU160
 759              		.syntax unified
 760              	@ 142 "Drivers/CMSIS/Include/cmsis_gcc.h" 1
 761 0000 72B6     		cpsid i
 762              	@ 0 "" 2
 763              		.thumb
 764              		.syntax unified
 765              	.L58:
 766              	.LBE9:
 767              	.LBE8:
 366:Core/Src/main.c ****   while (1)
 768              		.loc 1 366 3 view .LVU161
 367:Core/Src/main.c ****   {
 368:Core/Src/main.c ****   }
 769              		.loc 1 368 3 view .LVU162
 366:Core/Src/main.c ****   while (1)
 770              		.loc 1 366 9 view .LVU163
 771 0002 FEE7     		b	.L58
 772              		.cfi_endproc
 773              	.LFE154:
 775              		.section	.text.SystemClock_Config,"ax",%progbits
 776              		.align	1
 777              		.global	SystemClock_Config
 778              		.syntax unified
 779              		.thumb
 780              		.thumb_func
 782              	SystemClock_Config:
 783              	.LFB146:
 158:Core/Src/main.c ****   RCC_OscInitTypeDef RCC_OscInitStruct = {0};
 784              		.loc 1 158 1 view -0
 785              		.cfi_startproc
 786              		@ args = 0, pretend = 0, frame = 80
 787              		@ frame_needed = 0, uses_anonymous_args = 0
 788 0000 00B5     		push	{lr}
 789              	.LCFI10:
 790              		.cfi_def_cfa_offset 4
 791              		.cfi_offset 14, -4
 792 0002 95B0     		sub	sp, sp, #84
 793              	.LCFI11:
 794              		.cfi_def_cfa_offset 88
 159:Core/Src/main.c ****   RCC_ClkInitTypeDef RCC_ClkInitStruct = {0};
 795              		.loc 1 159 3 view .LVU165
 159:Core/Src/main.c ****   RCC_ClkInitTypeDef RCC_ClkInitStruct = {0};
 796              		.loc 1 159 22 is_stmt 0 view .LVU166
 797 0004 3022     		movs	r2, #48
 798 0006 0021     		movs	r1, #0
 799 0008 08A8     		add	r0, sp, #32
 800 000a FFF7FEFF 		bl	memset
 801              	.LVL27:
ARM GAS  /tmp/ccKv40C2.s 			page 25


 160:Core/Src/main.c **** 
 802              		.loc 1 160 3 is_stmt 1 view .LVU167
 160:Core/Src/main.c **** 
 803              		.loc 1 160 22 is_stmt 0 view .LVU168
 804 000e 0023     		movs	r3, #0
 805 0010 0393     		str	r3, [sp, #12]
 806 0012 0493     		str	r3, [sp, #16]
 807 0014 0593     		str	r3, [sp, #20]
 808 0016 0693     		str	r3, [sp, #24]
 809 0018 0793     		str	r3, [sp, #28]
 164:Core/Src/main.c ****   __HAL_PWR_VOLTAGESCALING_CONFIG(PWR_REGULATOR_VOLTAGE_SCALE1);
 810              		.loc 1 164 3 is_stmt 1 view .LVU169
 811              	.LBB10:
 164:Core/Src/main.c ****   __HAL_PWR_VOLTAGESCALING_CONFIG(PWR_REGULATOR_VOLTAGE_SCALE1);
 812              		.loc 1 164 3 view .LVU170
 164:Core/Src/main.c ****   __HAL_PWR_VOLTAGESCALING_CONFIG(PWR_REGULATOR_VOLTAGE_SCALE1);
 813              		.loc 1 164 3 view .LVU171
 814 001a 234B     		ldr	r3, .L67
 815 001c 1A6C     		ldr	r2, [r3, #64]
 816 001e 42F08052 		orr	r2, r2, #268435456
 817 0022 1A64     		str	r2, [r3, #64]
 164:Core/Src/main.c ****   __HAL_PWR_VOLTAGESCALING_CONFIG(PWR_REGULATOR_VOLTAGE_SCALE1);
 818              		.loc 1 164 3 view .LVU172
 819 0024 1B6C     		ldr	r3, [r3, #64]
 820 0026 03F08053 		and	r3, r3, #268435456
 821 002a 0193     		str	r3, [sp, #4]
 164:Core/Src/main.c ****   __HAL_PWR_VOLTAGESCALING_CONFIG(PWR_REGULATOR_VOLTAGE_SCALE1);
 822              		.loc 1 164 3 view .LVU173
 823 002c 019B     		ldr	r3, [sp, #4]
 824              	.LBE10:
 164:Core/Src/main.c ****   __HAL_PWR_VOLTAGESCALING_CONFIG(PWR_REGULATOR_VOLTAGE_SCALE1);
 825              		.loc 1 164 3 view .LVU174
 165:Core/Src/main.c **** 
 826              		.loc 1 165 3 view .LVU175
 827              	.LBB11:
 165:Core/Src/main.c **** 
 828              		.loc 1 165 3 view .LVU176
 165:Core/Src/main.c **** 
 829              		.loc 1 165 3 view .LVU177
 830 002e 1F4B     		ldr	r3, .L67+4
 831 0030 1A68     		ldr	r2, [r3]
 832 0032 42F44042 		orr	r2, r2, #49152
 833 0036 1A60     		str	r2, [r3]
 165:Core/Src/main.c **** 
 834              		.loc 1 165 3 view .LVU178
 835 0038 1B68     		ldr	r3, [r3]
 836 003a 03F44043 		and	r3, r3, #49152
 837 003e 0293     		str	r3, [sp, #8]
 165:Core/Src/main.c **** 
 838              		.loc 1 165 3 view .LVU179
 839 0040 029B     		ldr	r3, [sp, #8]
 840              	.LBE11:
 165:Core/Src/main.c **** 
 841              		.loc 1 165 3 view .LVU180
 170:Core/Src/main.c ****   RCC_OscInitStruct.HSEState = RCC_HSE_BYPASS;
 842              		.loc 1 170 3 view .LVU181
 170:Core/Src/main.c ****   RCC_OscInitStruct.HSEState = RCC_HSE_BYPASS;
ARM GAS  /tmp/ccKv40C2.s 			page 26


 843              		.loc 1 170 36 is_stmt 0 view .LVU182
 844 0042 0123     		movs	r3, #1
 845 0044 0893     		str	r3, [sp, #32]
 171:Core/Src/main.c ****   RCC_OscInitStruct.PLL.PLLState = RCC_PLL_ON;
 846              		.loc 1 171 3 is_stmt 1 view .LVU183
 171:Core/Src/main.c ****   RCC_OscInitStruct.PLL.PLLState = RCC_PLL_ON;
 847              		.loc 1 171 30 is_stmt 0 view .LVU184
 848 0046 4FF4A023 		mov	r3, #327680
 849 004a 0993     		str	r3, [sp, #36]
 172:Core/Src/main.c ****   RCC_OscInitStruct.PLL.PLLSource = RCC_PLLSOURCE_HSE;
 850              		.loc 1 172 3 is_stmt 1 view .LVU185
 172:Core/Src/main.c ****   RCC_OscInitStruct.PLL.PLLSource = RCC_PLLSOURCE_HSE;
 851              		.loc 1 172 34 is_stmt 0 view .LVU186
 852 004c 0223     		movs	r3, #2
 853 004e 0E93     		str	r3, [sp, #56]
 173:Core/Src/main.c ****   RCC_OscInitStruct.PLL.PLLM = 4;
 854              		.loc 1 173 3 is_stmt 1 view .LVU187
 173:Core/Src/main.c ****   RCC_OscInitStruct.PLL.PLLM = 4;
 855              		.loc 1 173 35 is_stmt 0 view .LVU188
 856 0050 4FF48002 		mov	r2, #4194304
 857 0054 0F92     		str	r2, [sp, #60]
 174:Core/Src/main.c ****   RCC_OscInitStruct.PLL.PLLN = 216;
 858              		.loc 1 174 3 is_stmt 1 view .LVU189
 174:Core/Src/main.c ****   RCC_OscInitStruct.PLL.PLLN = 216;
 859              		.loc 1 174 30 is_stmt 0 view .LVU190
 860 0056 0422     		movs	r2, #4
 861 0058 1092     		str	r2, [sp, #64]
 175:Core/Src/main.c ****   RCC_OscInitStruct.PLL.PLLP = RCC_PLLP_DIV2;
 862              		.loc 1 175 3 is_stmt 1 view .LVU191
 175:Core/Src/main.c ****   RCC_OscInitStruct.PLL.PLLP = RCC_PLLP_DIV2;
 863              		.loc 1 175 30 is_stmt 0 view .LVU192
 864 005a D822     		movs	r2, #216
 865 005c 1192     		str	r2, [sp, #68]
 176:Core/Src/main.c ****   RCC_OscInitStruct.PLL.PLLQ = 9;
 866              		.loc 1 176 3 is_stmt 1 view .LVU193
 176:Core/Src/main.c ****   RCC_OscInitStruct.PLL.PLLQ = 9;
 867              		.loc 1 176 30 is_stmt 0 view .LVU194
 868 005e 1293     		str	r3, [sp, #72]
 177:Core/Src/main.c ****   if (HAL_RCC_OscConfig(&RCC_OscInitStruct) != HAL_OK)
 869              		.loc 1 177 3 is_stmt 1 view .LVU195
 177:Core/Src/main.c ****   if (HAL_RCC_OscConfig(&RCC_OscInitStruct) != HAL_OK)
 870              		.loc 1 177 30 is_stmt 0 view .LVU196
 871 0060 0923     		movs	r3, #9
 872 0062 1393     		str	r3, [sp, #76]
 178:Core/Src/main.c ****   {
 873              		.loc 1 178 3 is_stmt 1 view .LVU197
 178:Core/Src/main.c ****   {
 874              		.loc 1 178 7 is_stmt 0 view .LVU198
 875 0064 08A8     		add	r0, sp, #32
 876 0066 FFF7FEFF 		bl	HAL_RCC_OscConfig
 877              	.LVL28:
 178:Core/Src/main.c ****   {
 878              		.loc 1 178 6 discriminator 1 view .LVU199
 879 006a B0B9     		cbnz	r0, .L64
 185:Core/Src/main.c ****   {
 880              		.loc 1 185 3 is_stmt 1 view .LVU200
 185:Core/Src/main.c ****   {
ARM GAS  /tmp/ccKv40C2.s 			page 27


 881              		.loc 1 185 7 is_stmt 0 view .LVU201
 882 006c FFF7FEFF 		bl	HAL_PWREx_EnableOverDrive
 883              	.LVL29:
 185:Core/Src/main.c ****   {
 884              		.loc 1 185 6 discriminator 1 view .LVU202
 885 0070 A8B9     		cbnz	r0, .L65
 192:Core/Src/main.c ****                               |RCC_CLOCKTYPE_PCLK1|RCC_CLOCKTYPE_PCLK2;
 886              		.loc 1 192 3 is_stmt 1 view .LVU203
 192:Core/Src/main.c ****                               |RCC_CLOCKTYPE_PCLK1|RCC_CLOCKTYPE_PCLK2;
 887              		.loc 1 192 31 is_stmt 0 view .LVU204
 888 0072 0F23     		movs	r3, #15
 889 0074 0393     		str	r3, [sp, #12]
 194:Core/Src/main.c ****   RCC_ClkInitStruct.AHBCLKDivider = RCC_SYSCLK_DIV1;
 890              		.loc 1 194 3 is_stmt 1 view .LVU205
 194:Core/Src/main.c ****   RCC_ClkInitStruct.AHBCLKDivider = RCC_SYSCLK_DIV1;
 891              		.loc 1 194 34 is_stmt 0 view .LVU206
 892 0076 0223     		movs	r3, #2
 893 0078 0493     		str	r3, [sp, #16]
 195:Core/Src/main.c ****   RCC_ClkInitStruct.APB1CLKDivider = RCC_HCLK_DIV4;
 894              		.loc 1 195 3 is_stmt 1 view .LVU207
 195:Core/Src/main.c ****   RCC_ClkInitStruct.APB1CLKDivider = RCC_HCLK_DIV4;
 895              		.loc 1 195 35 is_stmt 0 view .LVU208
 896 007a 0023     		movs	r3, #0
 897 007c 0593     		str	r3, [sp, #20]
 196:Core/Src/main.c ****   RCC_ClkInitStruct.APB2CLKDivider = RCC_HCLK_DIV2;
 898              		.loc 1 196 3 is_stmt 1 view .LVU209
 196:Core/Src/main.c ****   RCC_ClkInitStruct.APB2CLKDivider = RCC_HCLK_DIV2;
 899              		.loc 1 196 36 is_stmt 0 view .LVU210
 900 007e 4FF4A053 		mov	r3, #5120
 901 0082 0693     		str	r3, [sp, #24]
 197:Core/Src/main.c **** 
 902              		.loc 1 197 3 is_stmt 1 view .LVU211
 197:Core/Src/main.c **** 
 903              		.loc 1 197 36 is_stmt 0 view .LVU212
 904 0084 4FF48053 		mov	r3, #4096
 905 0088 0793     		str	r3, [sp, #28]
 199:Core/Src/main.c ****   {
 906              		.loc 1 199 3 is_stmt 1 view .LVU213
 199:Core/Src/main.c ****   {
 907              		.loc 1 199 7 is_stmt 0 view .LVU214
 908 008a 0721     		movs	r1, #7
 909 008c 03A8     		add	r0, sp, #12
 910 008e FFF7FEFF 		bl	HAL_RCC_ClockConfig
 911              	.LVL30:
 199:Core/Src/main.c ****   {
 912              		.loc 1 199 6 discriminator 1 view .LVU215
 913 0092 30B9     		cbnz	r0, .L66
 203:Core/Src/main.c **** 
 914              		.loc 1 203 1 view .LVU216
 915 0094 15B0     		add	sp, sp, #84
 916              	.LCFI12:
 917              		.cfi_remember_state
 918              		.cfi_def_cfa_offset 4
 919              		@ sp needed
 920 0096 5DF804FB 		ldr	pc, [sp], #4
 921              	.L64:
 922              	.LCFI13:
ARM GAS  /tmp/ccKv40C2.s 			page 28


 923              		.cfi_restore_state
 180:Core/Src/main.c ****   }
 924              		.loc 1 180 5 is_stmt 1 view .LVU217
 925 009a FFF7FEFF 		bl	Error_Handler
 926              	.LVL31:
 927              	.L65:
 187:Core/Src/main.c ****   }
 928              		.loc 1 187 5 view .LVU218
 929 009e FFF7FEFF 		bl	Error_Handler
 930              	.LVL32:
 931              	.L66:
 201:Core/Src/main.c ****   }
 932              		.loc 1 201 5 view .LVU219
 933 00a2 FFF7FEFF 		bl	Error_Handler
 934              	.LVL33:
 935              	.L68:
 936 00a6 00BF     		.align	2
 937              	.L67:
 938 00a8 00380240 		.word	1073887232
 939 00ac 00700040 		.word	1073770496
 940              		.cfi_endproc
 941              	.LFE146:
 943              		.section	.text.main,"ax",%progbits
 944              		.align	1
 945              		.global	main
 946              		.syntax unified
 947              		.thumb
 948              		.thumb_func
 950              	main:
 951              	.LFB145:
  86:Core/Src/main.c **** 
 952              		.loc 1 86 1 view -0
 953              		.cfi_startproc
 954              		@ args = 0, pretend = 0, frame = 0
 955              		@ frame_needed = 0, uses_anonymous_args = 0
 956 0000 10B5     		push	{r4, lr}
 957              	.LCFI14:
 958              		.cfi_def_cfa_offset 8
 959              		.cfi_offset 4, -8
 960              		.cfi_offset 14, -4
  90:Core/Src/main.c **** 
 961              		.loc 1 90 3 view .LVU221
 962 0002 1749     		ldr	r1, .L78
 963 0004 1748     		ldr	r0, .L78+4
 964 0006 FFF7FEFF 		bl	morse_decoder
 965              	.LVL34:
  95:Core/Src/main.c **** 
 966              		.loc 1 95 3 view .LVU222
 967 000a FFF7FEFF 		bl	MPU_Config
 968              	.LVL35:
 100:Core/Src/main.c **** 
 969              		.loc 1 100 3 view .LVU223
 970 000e FFF7FEFF 		bl	HAL_Init
 971              	.LVL36:
 107:Core/Src/main.c **** 
 972              		.loc 1 107 3 view .LVU224
 973 0012 FFF7FEFF 		bl	SystemClock_Config
ARM GAS  /tmp/ccKv40C2.s 			page 29


 974              	.LVL37:
 114:Core/Src/main.c ****   /* USER CODE BEGIN 2 */
 975              		.loc 1 114 3 view .LVU225
 976 0016 FFF7FEFF 		bl	MX_GPIO_Init
 977              	.LVL38:
 978 001a 0AE0     		b	.L76
 979              	.LVL39:
 980              	.L75:
 981              	.LBB12:
 127:Core/Src/main.c **** 
 982              		.loc 1 127 7 view .LVU226
 983 001c 2E2B     		cmp	r3, #46
 984 001e 0AD0     		beq	.L71
 985 0020 7C2B     		cmp	r3, #124
 986 0022 16D0     		beq	.L72
 987 0024 2D2B     		cmp	r3, #45
 988 0026 0DD0     		beq	.L73
 989              	.L74:
 125:Core/Src/main.c **** 
 990              		.loc 1 125 40 discriminator 2 view .LVU227
 991 0028 0134     		adds	r4, r4, #1
 992              	.LVL40:
 993              	.L70:
 125:Core/Src/main.c **** 
 994              		.loc 1 125 30 discriminator 1 view .LVU228
 125:Core/Src/main.c **** 
 995              		.loc 1 125 26 is_stmt 0 discriminator 1 view .LVU229
 996 002a 0D4B     		ldr	r3, .L78
 997 002c 1B5D     		ldrb	r3, [r3, r4]	@ zero_extendqisi2
 125:Core/Src/main.c **** 
 998              		.loc 1 125 30 discriminator 1 view .LVU230
 999 002e 002B     		cmp	r3, #0
 1000 0030 F4D1     		bne	.L75
 1001              	.LVL41:
 1002              	.L76:
 125:Core/Src/main.c **** 
 1003              		.loc 1 125 30 discriminator 1 view .LVU231
 1004              	.LBE12:
 121:Core/Src/main.c ****   {
 1005              		.loc 1 121 3 is_stmt 1 view .LVU232
 125:Core/Src/main.c **** 
 1006              		.loc 1 125 5 view .LVU233
 1007              	.LBB13:
 125:Core/Src/main.c **** 
 1008              		.loc 1 125 9 view .LVU234
 125:Core/Src/main.c **** 
 1009              		.loc 1 125 13 is_stmt 0 view .LVU235
 1010 0032 0024     		movs	r4, #0
 125:Core/Src/main.c **** 
 1011              		.loc 1 125 5 view .LVU236
 1012 0034 F9E7     		b	.L70
 1013              	.LVL42:
 1014              	.L71:
 130:Core/Src/main.c ****           HAL_Delay(MORSE_UNIT);
 1015              		.loc 1 130 11 is_stmt 1 view .LVU237
 1016 0036 FFF7FEFF 		bl	morse_dot
 1017              	.LVL43:
ARM GAS  /tmp/ccKv40C2.s 			page 30


 131:Core/Src/main.c ****           break;
 1018              		.loc 1 131 11 view .LVU238
 1019 003a 4FF4FA70 		mov	r0, #500
 1020 003e FFF7FEFF 		bl	HAL_Delay
 1021              	.LVL44:
 132:Core/Src/main.c ****         case '-' :
 1022              		.loc 1 132 11 view .LVU239
 1023 0042 F1E7     		b	.L74
 1024              	.L73:
 134:Core/Src/main.c ****           HAL_Delay(MORSE_UNIT);
 1025              		.loc 1 134 11 view .LVU240
 1026 0044 FFF7FEFF 		bl	morse_slash
 1027              	.LVL45:
 135:Core/Src/main.c ****           break;
 1028              		.loc 1 135 11 view .LVU241
 1029 0048 4FF4FA70 		mov	r0, #500
 1030 004c FFF7FEFF 		bl	HAL_Delay
 1031              	.LVL46:
 136:Core/Src/main.c ****         case '|' :
 1032              		.loc 1 136 11 view .LVU242
 1033 0050 EAE7     		b	.L74
 1034              	.L72:
 138:Core/Src/main.c ****           HAL_Delay(MORSE_UNIT);
 1035              		.loc 1 138 11 view .LVU243
 1036 0052 FFF7FEFF 		bl	morse_mod
 1037              	.LVL47:
 139:Core/Src/main.c ****           break;
 1038              		.loc 1 139 11 view .LVU244
 1039 0056 4FF4FA70 		mov	r0, #500
 1040 005a FFF7FEFF 		bl	HAL_Delay
 1041              	.LVL48:
 140:Core/Src/main.c **** 
 1042              		.loc 1 140 11 view .LVU245
 1043 005e E3E7     		b	.L74
 1044              	.L79:
 1045              		.align	2
 1046              	.L78:
 1047 0060 00000000 		.word	output
 1048 0064 00000000 		.word	message
 1049              	.LBE13:
 1050              		.cfi_endproc
 1051              	.LFE145:
 1053              		.global	output
 1054              		.section	.bss.output,"aw",%nobits
 1055              		.align	2
 1058              	output:
 1059 0000 00000000 		.space	512
 1059      00000000 
 1059      00000000 
 1059      00000000 
 1059      00000000 
 1060              		.section	.rodata.message,"a"
 1061              		.align	2
 1064              	message:
 1065 0000 48454C00 		.ascii	"HEL\000"
 1066              		.text
 1067              	.Letext0:
ARM GAS  /tmp/ccKv40C2.s 			page 31


 1068              		.file 3 "/usr/lib/gcc/arm-none-eabi/13.2.1/include/stdint.h"
 1069              		.file 4 "Drivers/CMSIS/Device/ST/STM32F7xx/Include/stm32f722xx.h"
 1070              		.file 5 "Drivers/STM32F7xx_HAL_Driver/Inc/stm32f7xx_hal_def.h"
 1071              		.file 6 "Drivers/STM32F7xx_HAL_Driver/Inc/stm32f7xx_hal_rcc_ex.h"
 1072              		.file 7 "Drivers/STM32F7xx_HAL_Driver/Inc/stm32f7xx_hal_rcc.h"
 1073              		.file 8 "Drivers/STM32F7xx_HAL_Driver/Inc/stm32f7xx_hal_gpio.h"
 1074              		.file 9 "Drivers/STM32F7xx_HAL_Driver/Inc/stm32f7xx_hal_cortex.h"
 1075              		.file 10 "/usr/include/newlib/string.h"
 1076              		.file 11 "Drivers/STM32F7xx_HAL_Driver/Inc/stm32f7xx_hal.h"
 1077              		.file 12 "Drivers/STM32F7xx_HAL_Driver/Inc/stm32f7xx_hal_pwr_ex.h"
 1078              		.file 13 "<built-in>"
ARM GAS  /tmp/ccKv40C2.s 			page 32

